 DemoStandalone

 Timestamp is 68576c9a (Sat Jun 21 21:38:18 2025)

 Preferred load address is 0000000140000000

 Start         Length     Name                   Class
 0001:00000000 000022c0H .text                   CODE
 0001:000022c0 0000000eH .text$__clang_call_terminate CODE
 0001:000022d0 00000320H .text                   CODE
 0001:000025f0 0000004aH .text$_ZN3Vcl5Forms5TFormC3EPN6System7Classes10TComponentE CODE
 0001:00002640 0000004aH .text$_ZN21Idhttpwebbrokerbridge22TIdHTTPWebBrokerBridgeC3EPN6System7Classes10TComponentE CODE
 0001:00002690 0000003eH .text$_ZN6TForm2D0Ev    CODE
 0001:000026d0 00000055H .text$_ZN3Vcl5Forms5TFormC3EPN6System7Classes10TComponentEi CODE
 0001:00002730 00000063H .text$_ZN3Vcl5Forms5TFormC3EPN6System7Classes10TComponentEii CODE
 0001:000027a0 00000034H .text$_ZN3Vcl5Forms5TFormD0Ev CODE
 0001:000027e0 000001d0H .text                   CODE
 0001:000029b0 00000034H .text$_ZN15TServerMethods2D0Ev CODE
 0001:000029f0 00000125H .text                   CODE
 0001:00002b20 0000003eH .text$_ZN11TWebModule2D0Ev CODE
 0001:00002b60 00000055H .text$_ZN3Web7Httpapp10TWebModuleC3EPN6System7Classes10TComponentEi CODE
 0001:00002bc0 00000034H .text$_ZN3Web7Httpapp10TWebModuleD0Ev CODE
 0001:00002c00 00000055H .text$_ZN3Web7Httpapp20TCustomWebDispatcherC3EPN6System7Classes10TComponentEi CODE
 0001:00002c60 000033ecH .text                   CODE
 0001:00006050 0000008fH .text$_ZN6System8Sysutils11ERangeErrorC3ENS_13UnicodeStringE CODE
 0001:000060e0 00000048H .text$_ZN6System8Sysutils11ERangeErrorD0Ev CODE
 0001:00006130 000000b2H .text$_ZN6System11AnsiStringTILt0EED2Ev CODE
 0001:000061f0 000000d1H .text$_ZN6System8Sysutils9EIntErrorC3ENS_13UnicodeStringE CODE
 0001:000062d0 0000008fH .text$_ZN6System8Sysutils9EExternalC3ENS_13UnicodeStringE CODE
 0001:00006360 0000003eH .text$_ZN6System8Sysutils9EIntErrorD0Ev CODE
 0001:000063a0 00000034H .text$_ZN6System8Sysutils9EExternalD0Ev CODE
 0001:000063e0 00001374H .text                   CODE
 0001:00007760 0000042dH .text$_ZNSt3__112__hash_tableINS_17__hash_value_typeIPN6System7Typinfo9TTypeInfoEPSt9type_infoEENS_22__unordered_map_hasherIS5_S8_NS_4hashIS5_EENS_8equal_toIS5_EELb1EEENS_21__unordered_map_equalIS5_S8_SD_SB_Lb1EEENS_9allocatorIS8_EEE25__emplace_unique_key_argsIS5_JRKNS_21piecewise_construct_tENS_5tupleIJRKS5_EEENSO_IJEEEEEENS_4pairINS_15__hash_iteratorIPNS_11__hash_nodeIS8_PvEEEEbEERKT_DpOT0_ CODE
 0001:00007b90 00000031H .text$_ZSt28__throw_bad_array_new_lengthB6v15007v CODE
 0001:00007bd0 00000233H .text$_ZNSt3__112__hash_tableINS_17__hash_value_typeIPN6System7Typinfo9TTypeInfoEPSt9type_infoEENS_22__unordered_map_hasherIS5_S8_NS_4hashIS5_EENS_8equal_toIS5_EELb1EEENS_21__unordered_map_equalIS5_S8_SD_SB_Lb1EEENS_9allocatorIS8_EEE11__do_rehashILb1EEEvy CODE
 0001:00007e10 0000720bH .text                   CODE
 0001:0000f020 0000001dH .text$_ZTWL16exception_object CODE
 0001:0000f040 0000019cH .text                   CODE
 0002:00000000 00000008H .rdata$.refptr._MINGW_INSTALL_DEBUG_MATHERR DATA
 0002:00000008 00000008H .rdata$.refptr.__dyn_tls_init_callback DATA
 0002:00000010 00000008H .rdata$.refptr.__globallocalestatus DATA
 0002:00000018 00000008H .rdata$.refptr.__image_base__ DATA
 0002:00000020 00000008H .rdata$.refptr.__imp___initenv DATA
 0002:00000028 00000008H .rdata$.refptr.__mingw_app_type DATA
 0002:00000030 00000008H .rdata$.refptr.__mingw_initltsdrot_force DATA
 0002:00000038 00000008H .rdata$.refptr.__mingw_initltsdyn_force DATA
 0002:00000040 00000008H .rdata$.refptr.__mingw_initltssuo_force DATA
 0002:00000048 00000008H .rdata$.refptr.__mingw_oldexcpt_handler DATA
 0002:00000050 00000008H .rdata$.refptr.__native_startup_lock DATA
 0002:00000058 00000008H .rdata$.refptr.__native_startup_state DATA
 0002:00000060 00000008H .rdata$.refptr.__xc_a   DATA
 0002:00000068 00000008H .rdata$.refptr.__xc_z   DATA
 0002:00000070 00000008H .rdata$.refptr.__xi_a   DATA
 0002:00000078 00000008H .rdata$.refptr.__xi_z   DATA
 0002:00000080 00000008H .rdata$.refptr._commode DATA
 0002:00000088 00000008H .rdata$.refptr._dowildcard DATA
 0002:00000090 00000008H .rdata$.refptr._fmode   DATA
 0002:00000098 00000008H .rdata$.refptr._hInstance DATA
 0002:000000a0 00000008H .rdata$.refptr._newmode DATA
 0002:000000a8 00000540H .rdata                  DATA
 0002:000005e8 00000008H .rdata$.refptr.Form2    DATA
 0002:000005f0 00000008H .rdata$.refptr.WebModuleClass DATA
 0002:000005f8 00000008H .rdata$.refptr._ZTV6TForm2 DATA
 0002:00000600 000007baH .rdata                  DATA
 0002:00000dc0 00000035H .rdata$_ZTR6TForm2      DATA
 0002:00000df8 00000008H .rdata$.refptr._ZTVN21Idhttpwebbrokerbridge22TIdHTTPWebBrokerBridgeE DATA
 0002:00000e00 0000029aH .rdata                  DATA
 0002:000010a0 00000048H .rdata$_ZTR17TServerContainer2 DATA
 0002:000010e8 00000009H .rdata$_ZTRN6System7Classes16TPersistentClassE DATA
 0002:00001100 00000046H .rdata$_ZTR15TServerMethods2 DATA
 0002:00001148 00000008H .rdata$.refptr._ZTV15TServerMethods2 DATA
 0002:00001150 00000669H .rdata                  DATA
 0002:000017c0 00000040H .rdata$_ZTR11TWebModule2 DATA
 0002:00001800 00000012H .rdata                  DATA
 0002:00001818 00000008H .rdata$.refptr.__imp__tzset DATA
 0002:00001820 00000008H .rdata$.refptr.__mingw_module_is_dll DATA
 0002:00001828 00000001H .rdata                  DATA
 0002:00001830 00000008H .rdata$.refptr.__CTOR_LIST__ DATA
 0002:00001838 00000030H .rdata                  DATA
 0002:00001868 00000008H .rdata$.refptr._CRT_MT  DATA
 0002:00001870 00000255H .rdata                  DATA
 0002:00001ac8 00000008H .rdata$.refptr.__RUNTIME_PSEUDO_RELOC_LIST_END__ DATA
 0002:00001ad0 00000008H .rdata$.refptr.__RUNTIME_PSEUDO_RELOC_LIST__ DATA
 0002:00001ad8 00000008H .rdata$.refptr._ZN6System10_init_instE DATA
 0002:00001ae0 00000008H .rdata$.refptr._ZTRN6System8Sysutils11ERangeErrorE DATA
 0002:00001ae8 00000008H .rdata$.refptr._ZTVN6System8Sysutils11ERangeErrorE DATA
 0002:00001af0 00000151H .rdata                  DATA
 0002:00001c41 00000019H .rdata$_ZTSSt20bad_array_new_length DATA
 0002:00001c5a 0000000dH .rdata$_ZTSSt9bad_alloc DATA
 0002:00001c67 0000000dH .rdata$_ZTSSt9exception DATA
 0002:00001c78 00000010H .rdata$_ZTISt9exception DATA
 0002:00001c88 00000018H .rdata$_ZTISt9bad_alloc DATA
 0002:00001ca0 00000018H .rdata$_ZTISt20bad_array_new_length DATA
 0002:00001cb8 00004a14H .rdata                  DATA
 0002:000066d0 00000008H .rdata$.refptr.__EMBT_INIT_LIST_BEGIN__ DATA
 0002:000066d8 00000008H .rdata$.refptr.__EMBT_INIT_LIST_END__ DATA
 0002:000066e0 00000008H .rdata$.refptr.__isDLL  DATA
 0002:000066e8 00000008H .rdata$.refptr.__isGUI  DATA
 0002:000066f0 00000008H .rdata$.refptr.__isVCLPackage DATA
 0002:000066f8 000003a0H .rdata                  DATA
 0002:00006b80 00000008H .CRT$XCA                DATA
 0002:00006b88 00000008H .CRT$XCAA               DATA
 0002:00006b90 00000008H .CRT$XCZ                DATA
 0002:00006b98 00000008H .CRT$XDA                DATA
 0002:00006ba0 00000008H .CRT$XDZ                DATA
 0002:00006ba8 00000008H .CRT$XIA                DATA
 0002:00006bb0 00000008H .CRT$XIAA               DATA
 0002:00006bb8 00000008H .CRT$XIZ                DATA
 0002:00006bc0 00000008H .CRT$XLA                DATA
 0002:00006bc8 00000008H .CRT$XLC                DATA
 0002:00006bd0 00000008H .CRT$XLD                DATA
 0002:00006bd8 00000008H .CRT$XLZ                DATA
 0002:00006be8 00000008H .ctors.65435            DATA
 0002:00006bf0 00000010H .ctors.65534            DATA
 0002:00006c10 00000010H .dtors.65403            DATA
 0002:00006c20 00000008H .dtors.65435            DATA
 0002:000121d0 000002acH .xdata                  DATA
 0002:0001247c 0000000cH .xdata$_ZN3Vcl5Forms5TFormC3EPN6System7Classes10TComponentE DATA
 0002:00012488 0000000cH .xdata$_ZN21Idhttpwebbrokerbridge22TIdHTTPWebBrokerBridgeC3EPN6System7Classes10TComponentE DATA
 0002:00012494 0000000cH .xdata$_ZN6TForm2D0Ev   DATA
 0002:000124a0 0000000cH .xdata$_ZN3Vcl5Forms5TFormC3EPN6System7Classes10TComponentEi DATA
 0002:000124ac 00000010H .xdata$_ZN3Vcl5Forms5TFormC3EPN6System7Classes10TComponentEii DATA
 0002:000124bc 0000000cH .xdata$_ZN3Vcl5Forms5TFormD0Ev DATA
 0002:000124c8 00000068H .xdata                  DATA
 0002:00012530 0000000cH .xdata$_ZN15TServerMethods2D0Ev DATA
 0002:0001253c 00000034H .xdata                  DATA
 0002:00012570 0000000cH .xdata$_ZN11TWebModule2D0Ev DATA
 0002:0001257c 0000000cH .xdata$_ZN3Web7Httpapp10TWebModuleC3EPN6System7Classes10TComponentEi DATA
 0002:00012588 0000000cH .xdata$_ZN3Web7Httpapp10TWebModuleD0Ev DATA
 0002:00012594 0000000cH .xdata$_ZN3Web7Httpapp20TCustomWebDispatcherC3EPN6System7Classes10TComponentEi DATA
 0002:000125a0 00000818H .xdata                  DATA
 0002:00012db8 00000038H .xdata$_ZN6System8Sysutils11ERangeErrorC3ENS_13UnicodeStringE DATA
 0002:00012df0 00000020H .xdata$_ZN6System11AnsiStringTILt0EED2Ev DATA
 0002:00012e10 0000004cH .xdata$_ZN6System8Sysutils9EIntErrorC3ENS_13UnicodeStringE DATA
 0002:00012e5c 00000038H .xdata$_ZN6System8Sysutils9EExternalC3ENS_13UnicodeStringE DATA
 0002:00012e94 00000038H .xdata$_ZN6System8Sysutils11ERangeErrorC3ENS_13UnicodeStringE DATA
 0002:00012ecc 0000000cH .xdata$_ZN6System8Sysutils11ERangeErrorD0Ev DATA
 0002:00012ed8 00000020H .xdata$_ZN6System11AnsiStringTILt0EED2Ev DATA
 0002:00012ef8 0000004cH .xdata$_ZN6System8Sysutils9EIntErrorC3ENS_13UnicodeStringE DATA
 0002:00012f44 00000038H .xdata$_ZN6System8Sysutils9EExternalC3ENS_13UnicodeStringE DATA
 0002:00012f7c 0000000cH .xdata$_ZN6System8Sysutils9EIntErrorD0Ev DATA
 0002:00012f88 0000000cH .xdata$_ZN6System8Sysutils9EExternalD0Ev DATA
 0002:00012f94 00000154H .xdata                  DATA
 0002:000130e8 00000078H .xdata$_ZNSt3__112__hash_tableINS_17__hash_value_typeIPN6System7Typinfo9TTypeInfoEPSt9type_infoEENS_22__unordered_map_hasherIS5_S8_NS_4hashIS5_EENS_8equal_toIS5_EELb1EEENS_21__unordered_map_equalIS5_S8_SD_SB_Lb1EEENS_9allocatorIS8_EEE25__emplace_unique_key_argsIS5_JRKNS_21piecewise_construct_tENS_5tupleIJRKS5_EEENSO_IJEEEEEENS_4pairINS_15__hash_iteratorIPNS_11__hash_nodeIS8_PvEEEEbEERKT_DpOT0_ DATA
 0002:00013160 00000008H .xdata$_ZSt28__throw_bad_array_new_lengthB6v15007v DATA
 0002:00013168 00000010H .xdata$_ZNSt3__112__hash_tableINS_17__hash_value_typeIPN6System7Typinfo9TTypeInfoEPSt9type_infoEENS_22__unordered_map_hasherIS5_S8_NS_4hashIS5_EENS_8equal_toIS5_EELb1EEENS_21__unordered_map_equalIS5_S8_SD_SB_Lb1EEENS_9allocatorIS8_EEE11__do_rehashILb1EEEvy DATA
 0002:00013178 00000770H .xdata                  DATA
 0002:000138e8 0000002cH .xdata$_ZN6System8Sysutils11ERangeErrorC3ENS_13UnicodeStringE DATA
 0002:00013914 00000028H .xdata$_ZN6System11AnsiStringTILt0EED2Ev DATA
 0002:0001393c 00000028H .xdata$_ZN6System8Sysutils9EIntErrorC3ENS_13UnicodeStringE DATA
 0002:00013964 00000020H .xdata$_ZN6System8Sysutils9EExternalC3ENS_13UnicodeStringE DATA
 0002:00013984 00000d8cH .xdata                  DATA
 0003:00000000 00000230H .data                   DATA
 0003:00000230 000001d0H .bss                    DATA
 0003:00000400 00000008H .bss$_ZGVZN6System11AnsiStringTILt0EED1EvE13__force_inst1 DATA
 0003:00000408 00000008H .bss$_ZGVZN6System11AnsiStringTILt0EED1EvE13__force_inst2 DATA
 0003:00000410 00000008H .bss$_ZZN6System11AnsiStringTILt0EED1EvE13__force_inst1 DATA
 0003:00000418 00000008H .bss$_ZZN6System11AnsiStringTILt0EED1EvE13__force_inst2 DATA
 0004:00000000 00000270H .pdata                  DATA
 0004:00000270 0000000cH .pdata$_ZN3Vcl5Forms5TFormC3EPN6System7Classes10TComponentE DATA
 0004:0000027c 0000000cH .pdata$_ZN21Idhttpwebbrokerbridge22TIdHTTPWebBrokerBridgeC3EPN6System7Classes10TComponentE DATA
 0004:00000288 0000000cH .pdata$_ZN6TForm2D0Ev   DATA
 0004:00000294 0000000cH .pdata$_ZN3Vcl5Forms5TFormC3EPN6System7Classes10TComponentEi DATA
 0004:000002a0 0000000cH .pdata$_ZN3Vcl5Forms5TFormC3EPN6System7Classes10TComponentEii DATA
 0004:000002ac 0000000cH .pdata$_ZN3Vcl5Forms5TFormD0Ev DATA
 0004:000002b8 0000003cH .pdata                  DATA
 0004:000002f4 0000000cH .pdata$_ZN15TServerMethods2D0Ev DATA
 0004:00000300 00000024H .pdata                  DATA
 0004:00000324 0000000cH .pdata$_ZN11TWebModule2D0Ev DATA
 0004:00000330 0000000cH .pdata$_ZN3Web7Httpapp10TWebModuleC3EPN6System7Classes10TComponentEi DATA
 0004:0000033c 0000000cH .pdata$_ZN3Web7Httpapp10TWebModuleD0Ev DATA
 0004:00000348 0000000cH .pdata$_ZN3Web7Httpapp20TCustomWebDispatcherC3EPN6System7Classes10TComponentEi DATA
 0004:00000354 000004e0H .pdata                  DATA
 0004:00000834 0000000cH .pdata$_ZN6System8Sysutils11ERangeErrorC3ENS_13UnicodeStringE DATA
 0004:00000840 0000000cH .pdata$_ZN6System8Sysutils11ERangeErrorD0Ev DATA
 0004:0000084c 0000000cH .pdata$_ZN6System11AnsiStringTILt0EED2Ev DATA
 0004:00000858 0000000cH .pdata$_ZN6System8Sysutils9EIntErrorC3ENS_13UnicodeStringE DATA
 0004:00000864 0000000cH .pdata$_ZN6System8Sysutils9EExternalC3ENS_13UnicodeStringE DATA
 0004:00000870 0000000cH .pdata$_ZN6System8Sysutils9EIntErrorD0Ev DATA
 0004:0000087c 0000000cH .pdata$_ZN6System8Sysutils9EExternalD0Ev DATA
 0004:00000888 00000150H .pdata                  DATA
 0004:000009d8 0000000cH .pdata$_ZNSt3__112__hash_tableINS_17__hash_value_typeIPN6System7Typinfo9TTypeInfoEPSt9type_infoEENS_22__unordered_map_hasherIS5_S8_NS_4hashIS5_EENS_8equal_toIS5_EELb1EEENS_21__unordered_map_equalIS5_S8_SD_SB_Lb1EEENS_9allocatorIS8_EEE25__emplace_unique_key_argsIS5_JRKNS_21piecewise_construct_tENS_5tupleIJRKS5_EEENSO_IJEEEEEENS_4pairINS_15__hash_iteratorIPNS_11__hash_nodeIS8_PvEEEEbEERKT_DpOT0_ DATA
 0004:000009e4 0000000cH .pdata$_ZSt28__throw_bad_array_new_lengthB6v15007v DATA
 0004:000009f0 0000000cH .pdata$_ZNSt3__112__hash_tableINS_17__hash_value_typeIPN6System7Typinfo9TTypeInfoEPSt9type_infoEENS_22__unordered_map_hasherIS5_S8_NS_4hashIS5_EENS_8equal_toIS5_EELb1EEENS_21__unordered_map_equalIS5_S8_SD_SB_Lb1EEENS_9allocatorIS8_EEE11__do_rehashILb1EEEvy DATA
 0004:000009fc 00000f54H .pdata                  DATA
 0005:00000000 00000044H .embtexi                DATA
 0006:00000000 00000008H .embti$x                DATA
 0006:00000008 00000178H .embti$y                DATA
 0006:00000180 00000008H .embti$z                DATA
 0007:00000000 00000044H .embtini                DATA
 0008:00000000 00000160H .embtinit               DATA
 0009:00000000 00000008H .tls                    DATA
 0009:00000010 00000210H .tls$                   DATA
 0009:00000220 00000008H .tls$ZZZ                DATA
 0009:00000228 00000001H .tls$zzz                DATA
 000a:00000000 00000454H .rsrc$01                DATA
 000a:00000460 0001fec0H .rsrc$02                DATA

  Address         Publics by Value              Rva+Base               Lib:Object

 0000:00000000       .absolut                   0000000000000000     <absolute>
 0000:ffffffb0       vtAfterConstruction        00000000ffffffb0     <absolute>
 0000:ffffffb8       vtBeforeDestruction        00000000ffffffb8     <absolute>
 0000:ffffffd0       vtNewInstance              00000000ffffffd0     <absolute>
 0000:ffffffd8       vtFreeInstance             00000000ffffffd8     <absolute>
 0000:00000000       __ImageBase                0000000140000000     <linker-defined>
 0000:00000000       __ImageBase                0000000140000000     <linker-defined>
 0000:00000000       __ImageBase                0000000140000000     <linker-defined>
 0001:00000100       WinMainCRTStartup          0000000140001100     crt2.o
 0001:00000350       mainCRTStartup             0000000140001350     crt2.o
 0001:00000380       atexit                     0000000140001380     crt2.o
 0001:00000620       __System__GetTls           0000000140001620     crtbegin.o
 0001:00000636       _ZN7Sysinit7_GetTlsEv      0000000140001636     crtbegin.o
 0001:00000650       .weak._ZN7Sysinit7_GetTlsEv.default 0000000140001650     sysinit.o
 0001:000006b0       _ZN7Sysinit17SetDliNotifyHook2EPFPv15dliNotificationP13DelayLoadInfoE 00000001400016b0     sysinit.o
 0001:000006c0       _ZN7Sysinit14DliNotifyHook2Ev 00000001400016c0     sysinit.o
 0001:000006d0       _ZN7Sysinit18SetDliFailureHook2EPFPv15dliNotificationP13DelayLoadInfoE 00000001400016d0     sysinit.o
 0001:000006e0       _ZN7Sysinit15DliFailureHook2Ev 00000001400016e0     sysinit.o
 0001:000006f0       _ZN7Sysinit17_DelayLoadHelper2ERPvS0_ 00000001400016f0     sysinit.o
 0001:00000700       _ZN7Sysinit21UnloadDelayLoadedDLL2EPc 0000000140001700     sysinit.o
 0001:00000710       _ZN7Sysinit20LoadAllImportsForDllEPc 0000000140001710     sysinit.o
 0001:00000720       _ZN7Sysinit7VclInitEbbyb   0000000140001720     sysinit.o
 0001:00000800       _ZN7Sysinit7VclExitEv      0000000140001800     sysinit.o
 0001:00000850       _ZN7Sysinit8_InitPkgEyiPv  0000000140001850     sysinit.o
 0001:000008d0       _ZN7Sysinit12_PackageLoadEPN6System16PackageInfoTableE 00000001400018d0     sysinit.o
 0001:000008f0       _ZN7Sysinit14_PackageUnloadEPN6System16PackageInfoTableE 00000001400018f0     sysinit.o
 0001:00000910       _ZN7Sysinit8_InitLibEPN6System12TInitContextEPNS0_16PackageInfoTableEyjPv 0000000140001910     sysinit.o
 0001:000009c0       _ZN7Sysinit8_InitExeEPv    00000001400019c0     sysinit.o
 0001:00000a50       _ZN7Sysinit18__delayLoadHelper2Ev 0000000140001a50     sysinit.o
 0001:00000d30       _ZN7Sysinit24__FUnloadDelayLoadedDLL2Ev 0000000140001d30     sysinit.o
 0001:000013e0       _ZN7Sysinit24__HrLoadAllImportsForDllEv 00000001400023e0     sysinit.o
 0001:00001870       _ZN7Sysinit12FinalizationEv 0000000140002870     sysinit.o
 0001:00001890       _ZN7Sysinit14initializationEv 0000000140002890     sysinit.o
 0001:00002220       WinMain                    0000000140003220     DemoStandalone.o
 0001:000022c0       __clang_call_terminate     00000001400032c0     DemoStandalone.o
 0001:000022d0       _ZN6TForm2C3EPN6System7Classes10TComponentE 00000001400032d0     UFrmMain.o
 0001:00002320       _ZN6TForm216ButtonStartClickEPN6System7TObjectE 0000000140003320     UFrmMain.o
 0001:00002330       _ZN6TForm211StartServerEv  0000000140003330     UFrmMain.o
 0001:000023e0       _Z16TerminateThreadsv      00000001400033e0     UFrmMain.o
 0001:00002400       _ZN6TForm215ButtonStopClickEPN6System7TObjectE 0000000140003400     UFrmMain.o
 0001:00002450       _ZN6TForm222ButtonOpenBrowserClickEPN6System7TObjectE 0000000140003450     UFrmMain.o
 0001:00002530       _ZN6TForm222ApplicationEvents1IdleEPN6System7TObjectERb 0000000140003530     UFrmMain.o
 0001:000025b0       _ZN6TForm210FormCreateEPN6System7TObjectE 00000001400035b0     UFrmMain.o
 0001:000025f0       _ZN3Vcl5Forms5TFormC3EPN6System7Classes10TComponentE 00000001400035f0     UFrmMain.o
 0001:00002640       _ZN21Idhttpwebbrokerbridge22TIdHTTPWebBrokerBridgeC3EPN6System7Classes10TComponentE 0000000140003640     UFrmMain.o
 0001:00002690       _ZN6TForm2D0Ev             0000000140003690     UFrmMain.o
 0001:000026d0       _ZN3Vcl5Forms5TFormC3EPN6System7Classes10TComponentEi 00000001400036d0     UFrmMain.o
 0001:00002730       _ZN3Vcl5Forms5TFormC3EPN6System7Classes10TComponentEii 0000000140003730     UFrmMain.o
 0001:000027a0       _ZN3Vcl5Forms5TFormD0Ev    00000001400037a0     UFrmMain.o
 0001:000027e0       _ZN17TServerContainer2C3EPN6System7Classes10TComponentE 00000001400037e0     UServerContainer.o
 0001:00002850       _ZN17TServerContainer2D0Ev 0000000140003850     UServerContainer.o
 0001:00002890       _ZN17TServerContainer222DSServerClass1GetClassEPN8Datasnap8Dsserver14TDSServerClassERN6System7Classes16TPersistentClassE 0000000140003890     UServerContainer.o
 0001:000028a0       _Z8DSServerv               00000001400038a0     UServerContainer.o
 0001:000028c0       _ZN15TServerMethods2C3EPN6System7Classes10TComponentE 00000001400038c0     UServerMethod.o
 0001:00002910       _ZN15TServerMethods210EchoStringEN6System13UnicodeStringE 0000000140003910     UServerMethod.o
 0001:00002960       _ZN15TServerMethods213ReverseStringEN6System13UnicodeStringE 0000000140003960     UServerMethod.o
 0001:000029b0       _ZN15TServerMethods2D0Ev   00000001400039b0     UServerMethod.o
 0001:000029f0       _ZN11TWebModule2C3EPN6System7Classes10TComponentE 00000001400039f0     UWebModuleMain.o
 0001:00002a40       _ZN11TWebModule230WebModule2DefaultHandlerActionEPN6System7TObjectEPN3Web7Httpapp11TWebRequestEPNS4_12TWebResponseERb 0000000140003a40     UWebModuleMain.o
 0001:00002aa0       _ZN11TWebModule215WebModuleCreateEPN6System7TObjectE 0000000140003aa0     UWebModuleMain.o
 0001:00002b20       _ZN11TWebModule2D0Ev       0000000140003b20     UWebModuleMain.o
 0001:00002b60       _ZN3Web7Httpapp10TWebModuleC3EPN6System7Classes10TComponentEi 0000000140003b60     UWebModuleMain.o
 0001:00002bc0       _ZN3Web7Httpapp10TWebModuleD0Ev 0000000140003bc0     UWebModuleMain.o
 0001:00002c00       _ZN3Web7Httpapp20TCustomWebDispatcherC3EPN6System7Classes10TComponentEi 0000000140003c00     UWebModuleMain.o
 0001:00002c60       __getmainargs              0000000140003c60     libucrt:lib64_libucrt_extra_a-ucrtbase_compat.o
 0001:00002cf0       __wgetmainargs             0000000140003cf0     libucrt:lib64_libucrt_extra_a-ucrtbase_compat.o
 0001:00002d80       _onexit                    0000000140003d80     libucrt:lib64_libucrt_extra_a-ucrtbase_compat.o
 0001:00002dd0       at_quick_exit              0000000140003dd0     libucrt:lib64_libucrt_extra_a-ucrtbase_compat.o
 0001:00002e10       _amsg_exit                 0000000140003e10     libucrt:lib64_libucrt_extra_a-ucrtbase_compat.o
 0001:00002e50       _get_output_format         0000000140003e50     libucrt:lib64_libucrt_extra_a-ucrtbase_compat.o
 0001:00002e60       _tzset                     0000000140003e60     libucrt:lib64_libucrt_extra_a-ucrtbase_compat.o
 0001:00002ea0       tzset                      0000000140003ea0     libucrt:lib64_libucrt_extra_a-ucrtbase_compat.o
 0001:00002eb0       __ms_fwprintf              0000000140003eb0     libucrt:lib64_libucrt_extra_a-ucrtbase_compat.o
 0001:00002f10       main                       0000000140003f10     libmingw32:lib64_libmingw32_a-crtexewin.o
 0001:000030e0       __do_global_dtors          00000001400040e0     libmingw32:lib64_libmingw32_a-gccmain.o
 0001:00003120       __do_global_ctors          0000000140004120     libmingw32:lib64_libmingw32_a-gccmain.o
 0001:000031d0       __main                     00000001400041d0     libmingw32:lib64_libmingw32_a-gccmain.o
 0001:00003200       _setargv                   0000000140004200     libmingw32:lib64_libmingw32_a-dllargv.o
 0001:00003210       __dyn_tls_init             0000000140004210     libmingw32:lib64_libmingw32_a-tlssup.o
 0001:000032f0       __tlregdtor                00000001400042f0     libmingw32:lib64_libmingw32_a-tlssup.o
 0001:00003390       _matherr                   0000000140004390     libmingw32:lib64_libmingw32_a-merr.o
 0001:000034b0       _fpreset                   00000001400044b0     libmingw32:lib64_libmingw32_a-CRT_fp10.o
 0001:000034b0       fpreset                    00000001400044b0     libmingw32:lib64_libmingw32_a-CRT_fp10.o
 0001:000034c0       _pei386_runtime_relocator  00000001400044c0     libmingw32:lib64_libmingw32_a-pseudo-reloc.o
 0001:00003da0       __mingw_raise_matherr      0000000140004da0     libmingw32:lib64_libmingw32_a-usermatherr.o
 0001:00003e20       __mingw_setusermatherr     0000000140004e20     libmingw32:lib64_libmingw32_a-usermatherr.o
 0001:00003e50       _gnu_exception_handler     0000000140004e50     libmingw32:lib64_libmingw32_a-crt_handler.o
 0001:00004130       _ZNK6System13UnicodeString6GetRecEv 0000000140005130     rtle:ustring.o
 0001:00004140       _ZN6System13UnicodeString6GetRecEv 0000000140005140     rtle:ustring.o
 0001:00004150       _ZNK6System13UnicodeString6LengthEv 0000000140005150     rtle:ustring.o
 0001:00004160       _ZNK6System13UnicodeString17ThrowIfOutOfRangeEi 0000000140005160     rtle:ustring.o
 0001:000041f0       _ZN6System13UnicodeStringC1Ev 00000001400051f0     rtle:ustring.o
 0001:000041f0       _ZN6System13UnicodeStringC2Ev 00000001400051f0     rtle:ustring.o
 0001:00004200       _ZN6System13UnicodeStringC1EPKc 0000000140005200     rtle:ustring.o
 0001:00004200       _ZN6System13UnicodeStringC2EPKc 0000000140005200     rtle:ustring.o
 0001:00004210       _ZN6System13UnicodeStringC1ERKS0_ 0000000140005210     rtle:ustring.o
 0001:00004210       _ZN6System13UnicodeStringC2ERKS0_ 0000000140005210     rtle:ustring.o
 0001:00004240       _ZN6System13UnicodeStringC2ERKNS_10WideStringE 0000000140005240     rtle:ustring.o
 0001:00004240       _ZN6System13UnicodeStringC1ERKNS_10WideStringE 0000000140005240     rtle:ustring.o
 0001:00004250       _ZN6System13UnicodeStringC2EPKwi 0000000140005250     rtle:ustring.o
 0001:00004250       _ZN6System13UnicodeStringC1EPKwi 0000000140005250     rtle:ustring.o
 0001:000042d0       _ZN6System13UnicodeString9SetLengthEi 00000001400052d0     rtle:ustring.o
 0001:000042f0       _ZN6System13UnicodeStringC2EPKw 00000001400052f0     rtle:ustring.o
 0001:000042f0       _ZN6System13UnicodeStringC1EPKw 00000001400052f0     rtle:ustring.o
 0001:00004360       _ZN6System13UnicodeStringC2EPKDsi 0000000140005360     rtle:ustring.o
 0001:00004360       _ZN6System13UnicodeStringC1EPKDsi 0000000140005360     rtle:ustring.o
 0001:000043d0       _ZN6System13UnicodeStringC2EPKDii 00000001400053d0     rtle:ustring.o
 0001:000043d0       _ZN6System13UnicodeStringC1EPKDii 00000001400053d0     rtle:ustring.o
 0001:000044e0       _ZN6System13UnicodeStringC2EPKci 00000001400054e0     rtle:ustring.o
 0001:000044e0       _ZN6System13UnicodeStringC1EPKci 00000001400054e0     rtle:ustring.o
 0001:00004540       _ZN6System13UnicodeStringC2Ed 0000000140005540     rtle:ustring.o
 0001:00004540       _ZN6System13UnicodeStringC1Ed 0000000140005540     rtle:ustring.o
 0001:000045a0       _ZN6System13UnicodeStringD1Ev 00000001400055a0     rtle:ustring.o
 0001:000045a0       _ZN6System13UnicodeStringD2Ev 00000001400055a0     rtle:ustring.o
 0001:000045c0       _ZN6System13UnicodeStringaSERKS0_ 00000001400055c0     rtle:ustring.o
 0001:000045e0       _ZN6System13UnicodeStringpLERKS0_ 00000001400055e0     rtle:ustring.o
 0001:00004600       _ZNK6System13UnicodeStringplERKS0_ 0000000140005600     rtle:ustring.o
 0001:00004670       _ZNK6System13UnicodeStringeqERKS0_ 0000000140005670     rtle:ustring.o
 0001:00004680       _ZNK6System13UnicodeStringneERKS0_ 0000000140005680     rtle:ustring.o
 0001:00004690       _ZNK6System13UnicodeStringltERKS0_ 0000000140005690     rtle:ustring.o
 0001:000046a0       _ZNK6System13UnicodeStringgtERKS0_ 00000001400056a0     rtle:ustring.o
 0001:000046b0       _ZNK6System13UnicodeStringleERKS0_ 00000001400056b0     rtle:ustring.o
 0001:000046c0       _ZNK6System13UnicodeStringgeERKS0_ 00000001400056c0     rtle:ustring.o
 0001:000046d0       _ZNK6System13UnicodeString7CompareERKS0_ 00000001400056d0     rtle:ustring.o
 0001:00004720       _ZNK6System13UnicodeString9CompareICERKS0_ 0000000140005720     rtle:ustring.o
 0001:00004780       _ZN6System13UnicodeString12StringOfCharEwi 0000000140005780     rtle:ustring.o
 0001:000048b0       _ZN6System13UnicodeString7LoadStrEi 00000001400058b0     rtle:ustring.o
 0001:000048d0       _ZN6System13UnicodeString7LoadStrEP11HINSTANCE__i 00000001400058d0     rtle:ustring.o
 0001:00004910       _ZN6System13UnicodeString11LoadStringAEP11HINSTANCE__i 0000000140005910     rtle:ustring.o
 0001:00004bb0       _ZN6System13UnicodeString10FmtLoadStrEiPKNS_7TVarRecEi 0000000140005bb0     rtle:ustring.o
 0001:00004bd0       _ZN6System13UnicodeString6FormatERKS0_PKNS_7TVarRecEi 0000000140005bd0     rtle:ustring.o
 0001:00004bf0       _ZN6System13UnicodeString11FormatFloatERKS0_RKe 0000000140005bf0     rtle:ustring.o
 0001:00004c10       _ZN6System13UnicodeString7vprintfEPKwPc 0000000140005c10     rtle:ustring.o
 0001:00004ca0       _ZN6System13UnicodeString11cat_vprintfEPKwPc 0000000140005ca0     rtle:ustring.o
 0001:00004d40       _ZN6System13UnicodeString6printfEPKwz 0000000140005d40     rtle:ustring.o
 0001:00004df0       _ZN6System13UnicodeString7sprintfEPKwz 0000000140005df0     rtle:ustring.o
 0001:00004e80       _ZN6System13UnicodeString10cat_printfEPKwz 0000000140005e80     rtle:ustring.o
 0001:00004f40       _ZN6System13UnicodeString11cat_sprintfEPKwz 0000000140005f40     rtle:ustring.o
 0001:00004ff0       _ZN6System13UnicodeString11FloatToStrFEeNS0_18TStringFloatFormatEii 0000000140005ff0     rtle:ustring.o
 0001:00005010       _ZN6System13UnicodeString8IntToHexEii 0000000140006010     rtle:ustring.o
 0001:00005030       _ZN6System13UnicodeString9CurrToStrENS_8CurrencyE 0000000140006030     rtle:ustring.o
 0001:00005050       _ZN6System13UnicodeString10CurrToStrFENS_8CurrencyENS0_18TStringFloatFormatEi 0000000140006050     rtle:ustring.o
 0001:00005070       _ZN6System13UnicodeString6UniqueEv 0000000140006070     rtle:ustring.o
 0001:00005090       _ZN6System13UnicodeString7Insert1ERKS0_i 0000000140006090     rtle:ustring.o
 0001:000050b0       _ZN6System13UnicodeString7Insert0ERKS0_i 00000001400060b0     rtle:ustring.o
 0001:000050d0       _ZN6System13UnicodeString7Delete1Eii 00000001400060d0     rtle:ustring.o
 0001:000050f0       _ZN6System13UnicodeString7Delete0Eii 00000001400060f0     rtle:ustring.o
 0001:00005110       _ZNK6System13UnicodeString4Pos1ERKS0_ 0000000140006110     rtle:ustring.o
 0001:00005120       _ZNK6System13UnicodeString4Pos0ERKS0_ 0000000140006120     rtle:ustring.o
 0001:00005130       _ZNK6System13UnicodeString9LowerCaseEv 0000000140006130     rtle:ustring.o
 0001:00005150       _ZNK6System13UnicodeString9UpperCaseEv 0000000140006150     rtle:ustring.o
 0001:00005170       _ZNK6System13UnicodeString4TrimEv 0000000140006170     rtle:ustring.o
 0001:00005190       _ZNK6System13UnicodeString8TrimLeftEv 0000000140006190     rtle:ustring.o
 0001:000051b0       _ZNK6System13UnicodeString9TrimRightEv 00000001400061b0     rtle:ustring.o
 0001:000051d0       _ZNK6System13UnicodeString10SubString1Eii 00000001400061d0     rtle:ustring.o
 0001:00005280       _ZNK6System13UnicodeString10SubString0Eii 0000000140006280     rtle:ustring.o
 0001:00005330       _ZNK6System13UnicodeString5ToIntEv 0000000140006330     rtle:ustring.o
 0001:00005340       _ZNK6System13UnicodeString8ToIntDefEi 0000000140006340     rtle:ustring.o
 0001:00005350       _ZNK6System13UnicodeString8ToDoubleEv 0000000140006350     rtle:ustring.o
 0001:00005360       _ZNK6System13UnicodeString12IsDelimiter1ERKS0_i 0000000140006360     rtle:ustring.o
 0001:00005370       _ZNK6System13UnicodeString12IsDelimiter0ERKS0_i 0000000140006370     rtle:ustring.o
 0001:00005390       _ZNK6System13UnicodeString16IsPathDelimiter1Ei 0000000140006390     rtle:ustring.o
 0001:000053a0       _ZNK6System13UnicodeString16IsPathDelimiter0Ei 00000001400063a0     rtle:ustring.o
 0001:000053b0       _ZNK6System13UnicodeString14LastDelimiter1ERKS0_ 00000001400063b0     rtle:ustring.o
 0001:000053c0       _ZNK6System13UnicodeString14LastDelimiter0ERKS0_ 00000001400063c0     rtle:ustring.o
 0001:000053e0       _ZNK6System13UnicodeString9ByteType1Ei 00000001400063e0     rtle:ustring.o
 0001:00005400       _ZNK6System13UnicodeString9ByteType0Ei 0000000140006400     rtle:ustring.o
 0001:00005420       _ZNK6System13UnicodeString16IsLeadSurrogate1Ei 0000000140006420     rtle:ustring.o
 0001:00005440       _ZNK6System13UnicodeString16IsLeadSurrogate0Ei 0000000140006440     rtle:ustring.o
 0001:00005460       _ZNK6System13UnicodeString17IsTrailSurrogate1Ei 0000000140006460     rtle:ustring.o
 0001:00005480       _ZNK6System13UnicodeString17IsTrailSurrogate0Ei 0000000140006480     rtle:ustring.o
 0001:000054a0       _ZNK6System13UnicodeString7BytesOfEv 00000001400064a0     rtle:ustring.o
 0001:000054c0       _ZN6SystemplEPKcRKNS_13UnicodeStringE 00000001400064c0     rtle:ustring.o
 0001:00005530       _ZN6SystemplEPKwRKNS_13UnicodeStringE 0000000140006530     rtle:ustring.o
 0001:000055e0       _ZN6SystemplEPKDsRKNS_13UnicodeStringE 00000001400065e0     rtle:ustring.o
 0001:00005690       _ZN6SystemplEPKDiRKNS_13UnicodeStringE 0000000140006690     rtle:ustring.o
 0001:000057e0       _ZNK6System13UnicodeString9FirstCharEv 00000001400067e0     rtle:ustring.o
 0001:000057f0       _ZNK6System13UnicodeString8LastCharEv 00000001400067f0     rtle:ustring.o
 0001:00005800       _ZN6System13UnicodeString9FirstCharEv 0000000140006800     rtle:ustring.o
 0001:00005810       _ZN6System13UnicodeString8LastCharEv 0000000140006810     rtle:ustring.o
 0001:00005820       _ZN6System13UnicodeString4swapERS0_ 0000000140006820     rtle:ustring.o
 0001:00005850       _ZN6System9to_stringERNS_13UnicodeStringEb 0000000140006850     rtle:ustring.o
 0001:000058b0       _ZN6System9to_stringERNS_13UnicodeStringEc 00000001400068b0     rtle:ustring.o
 0001:00005950       _ZN6System9to_stringERNS_13UnicodeStringEa 0000000140006950     rtle:ustring.o
 0001:000059b0       _ZN6System9to_stringERNS_13UnicodeStringEh 00000001400069b0     rtle:ustring.o
 0001:00005a10       _ZN6System9to_stringERNS_13UnicodeStringEs 0000000140006a10     rtle:ustring.o
 0001:00005a70       _ZN6System9to_stringERNS_13UnicodeStringEt 0000000140006a70     rtle:ustring.o
 0001:00005ad0       _ZN6System9to_stringERNS_13UnicodeStringEi 0000000140006ad0     rtle:ustring.o
 0001:00005b30       _ZN6System9to_stringERNS_13UnicodeStringEj 0000000140006b30     rtle:ustring.o
 0001:00005b90       _ZN6System9to_stringERNS_13UnicodeStringEl 0000000140006b90     rtle:ustring.o
 0001:00005bf0       _ZN6System9to_stringERNS_13UnicodeStringEm 0000000140006bf0     rtle:ustring.o
 0001:00005c50       _ZN6System9to_stringERNS_13UnicodeStringEw 0000000140006c50     rtle:ustring.o
 0001:00005cb0       _ZN6System9to_stringERNS_13UnicodeStringEx 0000000140006cb0     rtle:ustring.o
 0001:00005d10       _ZN6System9to_stringERNS_13UnicodeStringEy 0000000140006d10     rtle:ustring.o
 0001:00005d70       _ZN6System9to_stringERNS_13UnicodeStringEf 0000000140006d70     rtle:ustring.o
 0001:00005dd0       _ZN6System9to_stringERNS_13UnicodeStringEfRKNS_8Sysutils15TFormatSettingsE 0000000140006dd0     rtle:ustring.o
 0001:00005e30       _ZN6System9to_stringERNS_13UnicodeStringEd 0000000140006e30     rtle:ustring.o
 0001:00005e90       _ZN6System9to_stringERNS_13UnicodeStringEdRKNS_8Sysutils15TFormatSettingsE 0000000140006e90     rtle:ustring.o
 0001:00005ef0       _ZN6System9to_stringERNS_13UnicodeStringEe 0000000140006ef0     rtle:ustring.o
 0001:00005f50       _ZN6System9to_stringERNS_13UnicodeStringEeRKNS_8Sysutils15TFormatSettingsE 0000000140006f50     rtle:ustring.o
 0001:00005fb0       _ZN6System11from_stringERKNS_13UnicodeStringERb 0000000140006fb0     rtle:ustring.o
 0001:00005fc0       _ZN6System11from_stringERKNS_13UnicodeStringERe 0000000140006fc0     rtle:ustring.o
 0001:00005fd0       _ZN6System11from_stringERKNS_13UnicodeStringERKNS_8Sysutils15TFormatSettingsERe 0000000140006fd0     rtle:ustring.o
 0001:00005ff0       _ZN6System11from_stringERKNS_13UnicodeStringERi 0000000140006ff0     rtle:ustring.o
 0001:00006000       _ZN6System11from_stringERKNS_13UnicodeStringERx 0000000140007000     rtle:ustring.o
 0001:00006010       _ZN6System11from_stringERKNS_13UnicodeStringERj 0000000140007010     rtle:ustring.o
 0001:00006020       _ZN6System11from_stringERKNS_13UnicodeStringERy 0000000140007020     rtle:ustring.o
 0001:00006050       _ZN6System8Sysutils11ERangeErrorC3ENS_13UnicodeStringE 0000000140007050     rtle:ustring.o
 0001:000060e0       _ZN6System8Sysutils11ERangeErrorD0Ev 00000001400070e0     rtle:ustring.o
 0001:00006130       _ZN6System11AnsiStringTILt0EED2Ev 0000000140007130     rtle:ustring.o
 0001:000061f0       _ZN6System8Sysutils9EIntErrorC3ENS_13UnicodeStringE 00000001400071f0     rtle:ustring.o
 0001:000062d0       _ZN6System8Sysutils9EExternalC3ENS_13UnicodeStringE 00000001400072d0     rtle:ustring.o
 0001:00006360       _ZN6System8Sysutils9EIntErrorD0Ev 0000000140007360     rtle:ustring.o
 0001:000063a0       _ZN6System8Sysutils9EExternalD0Ev 00000001400073a0     rtle:ustring.o
 0001:000063e0       __ClassCreate              00000001400073e0     rtle:classcre64.o
 0001:000063eb       __ClassDestroy             00000001400073eb     rtle:classcre64.o
 0001:000063f1       __AfterConstruction        00000001400073f1     rtle:classcre64.o
 0001:000063fa       __BeforeDestruction        00000001400073fa     rtle:classcre64.o
 0001:0000640c       __currMul__                000000014000740c     rtle:classcre64.o
 0001:00006430       fprintf                    0000000140007430     libucrt:lib64_libucrt_extra_a-ucrt_fprintf.o
 0001:00006490       ___w64_mingwthr_add_key_dtor 0000000140007490     libmingw32:lib64_libmingw32_a-tlsthrd.o
 0001:00006550       ___w64_mingwthr_remove_key_dtor 0000000140007550     libmingw32:lib64_libmingw32_a-tlsthrd.o
 0001:00006630       __mingw_TLScallback        0000000140007630     libmingw32:lib64_libmingw32_a-tlsthrd.o
 0001:000067f0       _ValidateImageBase         00000001400077f0     libmingw32:lib64_libmingw32_a-pesect.o
 0001:000068a0       _FindPESection             00000001400078a0     libmingw32:lib64_libmingw32_a-pesect.o
 0001:00006980       _FindPESectionByName       0000000140007980     libmingw32:lib64_libmingw32_a-pesect.o
 0001:00006a90       __mingw_GetSectionForAddress 0000000140007a90     libmingw32:lib64_libmingw32_a-pesect.o
 0001:00006b00       __mingw_GetSectionCount    0000000140007b00     libmingw32:lib64_libmingw32_a-pesect.o
 0001:00006b60       _FindPESectionExec         0000000140007b60     libmingw32:lib64_libmingw32_a-pesect.o
 0001:00006c60       _GetPEImageBase            0000000140007c60     libmingw32:lib64_libmingw32_a-pesect.o
 0001:00006cb0       _IsNonwritableInCurrentImage 0000000140007cb0     libmingw32:lib64_libmingw32_a-pesect.o
 0001:00006d50       __mingw_enum_import_library_names 0000000140007d50     libmingw32:lib64_libmingw32_a-pesect.o
 0001:00006e9c       ___chkstk_ms               0000000140007e9c     libclang_rt.builtins-x86_64:chkstk.S.obj
 0001:00006ed0       vfprintf                   0000000140007ed0     libucrt:lib64_libucrt_extra_a-ucrt_vfprintf.o
 0001:00006f10       _ZN6System18LoadResourceStringEPKNS_13TResStringRecE 0000000140007f10     rtle:syssupp.o
 0001:00006f30       _ZN6System19CheckSafecallResultEl 0000000140007f30     rtle:syssupp.o
 0001:00006f40       _ZN6System16InterLockedExchgEPPvS0_ 0000000140007f40     rtle:syssupp.o
 0001:00006f50       .weak._ZN6System17TAggregatedObject13GetControllerEv.default._ZN6System18LoadResourceStringEPKNS_13TResStringRecE 0000000140007f50     rtle:syssupp.o
 0001:00006f50       .weak._ZN6System17TAggregatedObject13GetControllerEv.default._ZN6System18LoadResourceStringEPKNS_13TResStringRecE 0000000140007f50     rtle:syssupp.o
 0001:00006f60       __dynamic_delphi_cast      0000000140007f60     rtle:syssupp.o
 0001:00006fd0       __delphi_type_info         0000000140007fd0     rtle:syssupp.o
 0001:00007340       __dynamic_delphi_type_info 0000000140008340     rtle:syssupp.o
 0001:00007380       System_InstWeakClear       0000000140008380     rtle:syssupp.o
 0001:00007390       System_InstWeakCopy        0000000140008390     rtle:syssupp.o
 0001:000073a0       System_AsgClosureObj       00000001400083a0     rtle:syssupp.o
 0001:000073b0       System_ClosureAddWeakRef   00000001400083b0     rtle:syssupp.o
 0001:000073c0       System_ClosureRemoveWeakRef 00000001400083c0     rtle:syssupp.o
 0001:000073d0       System_CopyClosure         00000001400083d0     rtle:syssupp.o
 0001:000073e0       bcp_storeStrong            00000001400083e0     rtle:syssupp.o
 0001:00007460       bcp_initStrong             0000000140008460     rtle:syssupp.o
 0001:000074e0       bcp_addref                 00000001400084e0     rtle:syssupp.o
 0001:00007530       bcp_release                0000000140008530     rtle:syssupp.o
 0001:000075a0       bcp_initWeak               00000001400085a0     rtle:syssupp.o
 0001:00007620       bcp_releaseWeak            0000000140008620     rtle:syssupp.o
 0001:00007690       bcp_storeWeak              0000000140008690     rtle:syssupp.o
 0001:00007700       bcp_closureAddref          0000000140008700     rtle:syssupp.o
 0001:00007710       bcp_closureRelease         0000000140008710     rtle:syssupp.o
 0001:00007720       bcp_closureCopy            0000000140008720     rtle:syssupp.o
 0001:00007730       bcp_closureAsg             0000000140008730     rtle:syssupp.o
 0001:00007740       _Z17DebugHlpr_HRCHECKIKcEllPT_S2_i 0000000140008740     rtle:syssupp.o
 0001:00007760       _ZNSt3__112__hash_tableINS_17__hash_value_typeIPN6System7Typinfo9TTypeInfoEPSt9type_infoEENS_22__unordered_map_hasherIS5_S8_NS_4hashIS5_EENS_8equal_toIS5_EELb1EEENS_21__unordered_map_equalIS5_S8_SD_SB_Lb1EEENS_9allocatorIS8_EEE25__emplace_unique_key_argsIS5_JRKNS_21piecewise_construct_tENS_5tupleIJRKS5_EEENSO_IJEEEEEENS_4pairINS_15__hash_iteratorIPNS_11__hash_nodeIS8_PvEEEEbEERKT_DpOT0_ 0000000140008760     rtle:syssupp.o
 0001:00007b90       _ZSt28__throw_bad_array_new_lengthB6v15007v 0000000140008b90     rtle:syssupp.o
 0001:00007bd0       _ZNSt3__112__hash_tableINS_17__hash_value_typeIPN6System7Typinfo9TTypeInfoEPSt9type_infoEENS_22__unordered_map_hasherIS5_S8_NS_4hashIS5_EENS_8equal_toIS5_EELb1EEENS_21__unordered_map_equalIS5_S8_SD_SB_Lb1EEENS_9allocatorIS8_EEE11__do_rehashILb1EEEvy 0000000140008bd0     rtle:syssupp.o
 0001:00007e10       _ZN6System8Internal7Strhlpr15UnicodeFromAnsiERNS_13UnicodeStringERNS_11AnsiStringTILt65535EEE 0000000140008e10     rtl:System.Internal.StrHlpr.o
 0001:00007e30       _ZN6System8Internal7Strhlpr16UnicodeFromPCharERNS_13UnicodeStringEPcb 0000000140008e30     rtl:System.Internal.StrHlpr.o
 0001:00007ec0       _ZN6System8Internal7Strhlpr15UnicodeFromUTF8ERNS_13UnicodeStringEPKc 0000000140008ec0     rtl:System.Internal.StrHlpr.o
 0001:00007ed0       _ZN6System8Internal7Strhlpr20UnicodeFromPWideCharERNS_13UnicodeStringEPw 0000000140008ed0     rtl:System.Internal.StrHlpr.o
 0001:00007ef0       _ZN6System8Internal7Strhlpr13UnicodeAppendERNS_13UnicodeStringES3_ 0000000140008ef0     rtl:System.Internal.StrHlpr.o
 0001:00007f10       _ZN6System8Internal7Strhlpr10UnicodeCatERNS_13UnicodeStringES3_ 0000000140008f10     rtl:System.Internal.StrHlpr.o
 0001:00007f30       _ZN6System8Internal7Strhlpr13UnicodeDeleteERNS_13UnicodeStringEii 0000000140008f30     rtl:System.Internal.StrHlpr.o
 0001:00007f40       _ZN6System8Internal7Strhlpr16UnicodeSetLengthERNS_13UnicodeStringEi 0000000140008f40     rtl:System.Internal.StrHlpr.o
 0001:00007f50       _ZN6System8Internal7Strhlpr10UnicodePosERNS_13UnicodeStringES3_ 0000000140008f50     rtl:System.Internal.StrHlpr.o
 0001:00007f70       _ZN6System8Internal7Strhlpr11UnicodeCopyERNS_13UnicodeStringEii 0000000140008f70     rtl:System.Internal.StrHlpr.o
 0001:00007f90       _ZN6System8Internal7Strhlpr13UnicodeInsertERNS_13UnicodeStringES3_i 0000000140008f90     rtl:System.Internal.StrHlpr.o
 0001:00007fb0       _ZN6System8Internal7Strhlpr13UnicodeAssignERNS_13UnicodeStringES3_ 0000000140008fb0     rtl:System.Internal.StrHlpr.o
 0001:00007fd0       _ZN6System8Internal7Strhlpr11UnicodeFreeERNS_13UnicodeStringE 0000000140008fd0     rtl:System.Internal.StrHlpr.o
 0001:00007fe0       _ZN6System8Internal7Strhlpr12UnicodeEqualERNS_13UnicodeStringES3_ 0000000140008fe0     rtl:System.Internal.StrHlpr.o
 0001:00008000       _ZN6System8Internal7Strhlpr11UnicodeLessERNS_13UnicodeStringES3_ 0000000140009000     rtl:System.Internal.StrHlpr.o
 0001:00008020       _ZN6System8Internal7Strhlpr14UnicodeGreaterERNS_13UnicodeStringES3_ 0000000140009020     rtl:System.Internal.StrHlpr.o
 0001:00008040       _ZN6System8Internal7Strhlpr10AnsiAppendERNS_11AnsiStringTILt65535EEES4_ 0000000140009040     rtl:System.Internal.StrHlpr.o
 0001:00008060       _ZN6System8Internal7Strhlpr7AnsiCatERNS_11AnsiStringTILt65535EEES4_ 0000000140009060     rtl:System.Internal.StrHlpr.o
 0001:00008080       _ZN6System8Internal7Strhlpr10AnsiDeleteERNS_11AnsiStringTILt65535EEEii 0000000140009080     rtl:System.Internal.StrHlpr.o
 0001:00008090       _ZN6System8Internal7Strhlpr13AnsiSetLengthERNS_11AnsiStringTILt65535EEEi 0000000140009090     rtl:System.Internal.StrHlpr.o
 0001:000080b0       _ZN6System8Internal7Strhlpr7AnsiPosERNS_11AnsiStringTILt65535EEES4_ 00000001400090b0     rtl:System.Internal.StrHlpr.o
 0001:000080d0       _ZN6System8Internal7Strhlpr8AnsiCopyERNS_11AnsiStringTILt65535EEEii 00000001400090d0     rtl:System.Internal.StrHlpr.o
 0001:000080f0       _ZN6System8Internal7Strhlpr10AnsiInsertERNS_11AnsiStringTILt65535EEES4_i 00000001400090f0     rtl:System.Internal.StrHlpr.o
 0001:00008110       _ZN6System8Internal7Strhlpr9AnsiEqualERNS_11AnsiStringTILt65535EEES4_ 0000000140009110     rtl:System.Internal.StrHlpr.o
 0001:00008130       _ZN6System8Internal7Strhlpr11AnsiGreaterERNS_11AnsiStringTILt65535EEES4_ 0000000140009130     rtl:System.Internal.StrHlpr.o
 0001:00008150       _ZN6System8Internal7Strhlpr8AnsiLessERNS_11AnsiStringTILt65535EEES4_ 0000000140009150     rtl:System.Internal.StrHlpr.o
 0001:00008170       _ZN6System8Internal7Strhlpr10AnsiAssignERNS_11AnsiStringTILt65535EEES4_ 0000000140009170     rtl:System.Internal.StrHlpr.o
 0001:00008190       _ZN6System8Internal7Strhlpr8AnsiFreeERNS_11AnsiStringTILt65535EEE 0000000140009190     rtl:System.Internal.StrHlpr.o
 0001:000081a0       _ZN6System8Internal7Strhlpr10WideAssignERNS_10WideStringES3_ 00000001400091a0     rtl:System.Internal.StrHlpr.o
 0001:000081c0       _ZN6System8Internal7Strhlpr8WideFreeERNS_10WideStringE 00000001400091c0     rtl:System.Internal.StrHlpr.o
 0001:000081d0       _ZN6System8Internal7Strhlpr12WideFromAnsiERNS_10WideStringERNS_11AnsiStringTILt65535EEE 00000001400091d0     rtl:System.Internal.StrHlpr.o
 0001:000081f0       _ZN6System8Internal7Strhlpr15WideFromUnicodeERNS_10WideStringERNS_13UnicodeStringE 00000001400091f0     rtl:System.Internal.StrHlpr.o
 0001:00008210       _ZN6System8Internal7Strhlpr13WideFromPCharERNS_10WideStringEPcb 0000000140009210     rtl:System.Internal.StrHlpr.o
 0001:000082a0       _ZN6System8Internal7Strhlpr9WideEqualERNS_10WideStringES3_ 00000001400092a0     rtl:System.Internal.StrHlpr.o
 0001:000082c0       _ZN6System8Internal7Strhlpr8WideLessERNS_10WideStringES3_ 00000001400092c0     rtl:System.Internal.StrHlpr.o
 0001:000082e0       _ZN6System8Internal7Strhlpr11WideGreaterERNS_10WideStringES3_ 00000001400092e0     rtl:System.Internal.StrHlpr.o
 0001:00008300       _ZN6System8Internal7Strhlpr7WideCatERNS_10WideStringES3_ 0000000140009300     rtl:System.Internal.StrHlpr.o
 0001:00008320       _ZN6System8Internal7Strhlpr10WideLengthERNS_10WideStringE 0000000140009320     rtl:System.Internal.StrHlpr.o
 0001:00008340       _ZN6System8Internal7Strhlpr7WidePosERNS_10WideStringES3_ 0000000140009340     rtl:System.Internal.StrHlpr.o
 0001:00008360       _ZN6System8Internal7Strhlpr13WideSetLengthERNS_10WideStringEi 0000000140009360     rtl:System.Internal.StrHlpr.o
 0001:00008370       _ZN6System8Internal7Strhlpr10WideDeleteERNS_10WideStringEii 0000000140009370     rtl:System.Internal.StrHlpr.o
 0001:00008380       _ZN6System8Internal7Strhlpr10WideInsertERNS_10WideStringES3_i 0000000140009380     rtl:System.Internal.StrHlpr.o
 0001:000083a0       _ZN6System8Internal7Strhlpr8WideCopyERNS_10WideStringEii 00000001400093a0     rtl:System.Internal.StrHlpr.o
 0001:000083c0       _ZN6System8Internal7Strhlpr10WideAppendERNS_10WideStringES3_ 00000001400093c0     rtl:System.Internal.StrHlpr.o
 0001:000083e0       _ZN6System8Internal7Strhlpr12WideFromUTF8ERNS_10WideStringEPKc 00000001400093e0     rtl:System.Internal.StrHlpr.o
 0001:00008450       _ZN6System8Internal7Strhlpr15UnicodeFromWideERNS_13UnicodeStringERNS_10WideStringE 0000000140009450     rtl:System.Internal.StrHlpr.o
 0001:00008470       _ZN6System8Internal7Strhlpr12FinalizationEv 0000000140009470     rtl:System.Internal.StrHlpr.o
 0001:00008480       _ZN6System8Internal7Strhlpr14initializationEv 0000000140009480     rtl:System.Internal.StrHlpr.o
 0001:00008490       _ZNK6System14AnsiStringBase6GetRecEv 0000000140009490     rtle:dstring.o
 0001:000084a0       _ZN6System14AnsiStringBase6GetRecEv 00000001400094a0     rtle:dstring.o
 0001:000084b0       _ZNK6System14AnsiStringBase6LengthEv 00000001400094b0     rtle:dstring.o
 0001:000084c0       _ZNK6System14AnsiStringBase17ThrowIfOutOfRangeEi 00000001400094c0     rtle:dstring.o
 0001:00008550       _ZN6System14AnsiStringBaseC2EPKci 0000000140009550     rtle:dstring.o
 0001:00008550       _ZN6System14AnsiStringBaseC1EPKci 0000000140009550     rtle:dstring.o
 0001:00008570       _ZN6System14AnsiStringBaseC2ERKS0_ 0000000140009570     rtle:dstring.o
 0001:00008570       _ZN6System14AnsiStringBaseC1ERKS0_ 0000000140009570     rtle:dstring.o
 0001:000085a0       _ZN6System14AnsiStringBaseC2ERKNS_10WideStringEi 00000001400095a0     rtle:dstring.o
 0001:000085a0       _ZN6System14AnsiStringBaseC1ERKNS_10WideStringEi 00000001400095a0     rtle:dstring.o
 0001:000085c0       _ZN6System14AnsiStringBaseC2ERKNS_13UnicodeStringEi 00000001400095c0     rtle:dstring.o
 0001:000085c0       _ZN6System14AnsiStringBaseC1ERKNS_13UnicodeStringEi 00000001400095c0     rtle:dstring.o
 0001:000085e0       _ZN6System14AnsiStringBaseC2EPKcii 00000001400095e0     rtle:dstring.o
 0001:000085e0       _ZN6System14AnsiStringBaseC1EPKcii 00000001400095e0     rtle:dstring.o
 0001:00008650       _ZN6System14AnsiStringBase9SetLengthEii 0000000140009650     rtle:dstring.o
 0001:00008680       _ZN6System14AnsiStringBase15_AnsiFromPWCharERS0_PKwii 0000000140009680     rtle:dstring.o
 0001:000086a0       _ZN6System14AnsiStringBaseC2EPKwii 00000001400096a0     rtle:dstring.o
 0001:000086a0       _ZN6System14AnsiStringBaseC1EPKwii 00000001400096a0     rtle:dstring.o
 0001:000086f0       _ZN6System14AnsiStringBaseC2EPKDsii 00000001400096f0     rtle:dstring.o
 0001:000086f0       _ZN6System14AnsiStringBaseC1EPKDsii 00000001400096f0     rtle:dstring.o
 0001:00008740       _ZN6System14AnsiStringBaseC2EPKDiii 0000000140009740     rtle:dstring.o
 0001:00008740       _ZN6System14AnsiStringBaseC1EPKDiii 0000000140009740     rtle:dstring.o
 0001:00008800       _ZN6System14AnsiStringBaseaSERKS0_ 0000000140009800     rtle:dstring.o
 0001:00008820       _ZN6System14AnsiStringBaseC2Ewi 0000000140009820     rtle:dstring.o
 0001:00008820       _ZN6System14AnsiStringBaseC1Ewi 0000000140009820     rtle:dstring.o
 0001:00008840       _ZN6System14AnsiStringBaseC2EDii 0000000140009840     rtle:dstring.o
 0001:00008840       _ZN6System14AnsiStringBaseC1EDii 0000000140009840     rtle:dstring.o
 0001:00008900       _ZN6System14AnsiStringBaseC2Edi 0000000140009900     rtle:dstring.o
 0001:00008900       _ZN6System14AnsiStringBaseC1Edi 0000000140009900     rtle:dstring.o
 0001:000089d0       _ZN6System14AnsiStringBaseD2Ev 00000001400099d0     rtle:dstring.o
 0001:000089d0       _ZN6System14AnsiStringBaseD1Ev 00000001400099d0     rtle:dstring.o
 0001:000089f0       _ZN6System14AnsiStringBase8_AnsiCatERS0_RKS0_ 00000001400099f0     rtle:dstring.o
 0001:00008a00       _ZN6System14AnsiStringBase8_AnsiCatERS0_RKS0_S3_ 0000000140009a00     rtle:dstring.o
 0001:00008a10       _ZNK6System14AnsiStringBaseeqERKS0_ 0000000140009a10     rtle:dstring.o
 0001:00008a40       _ZNK6System14AnsiStringBase11AnsiCompareERKS0_ 0000000140009a40     rtle:dstring.o
 0001:00008a80       _ZNK6System14AnsiStringBaseneERKS0_ 0000000140009a80     rtle:dstring.o
 0001:00008ab0       _ZNK6System14AnsiStringBaseltERKS0_ 0000000140009ab0     rtle:dstring.o
 0001:00008ae0       _ZNK6System14AnsiStringBasegtERKS0_ 0000000140009ae0     rtle:dstring.o
 0001:00008b10       _ZNK6System14AnsiStringBase13AnsiCompareICERKS0_ 0000000140009b10     rtle:dstring.o
 0001:00008b20       _ZN6System14AnsiStringBase12StringOfCharEci 0000000140009b20     rtle:dstring.o
 0001:00008b80       _ZN6System14AnsiStringBase7LoadStrEii 0000000140009b80     rtle:dstring.o
 0001:00008c10       _ZN6System14AnsiStringBase7LoadStrEP11HINSTANCE__ii 0000000140009c10     rtle:dstring.o
 0001:00008c50       _ZN6System14AnsiStringBase11LoadStringAEP11HINSTANCE__ii 0000000140009c50     rtle:dstring.o
 0001:00008df0       _ZN6System14AnsiStringBase10FmtLoadStrEiPKNS_7TVarRecEii 0000000140009df0     rtle:dstring.o
 0001:00008e90       _ZN6System14AnsiStringBase6FormatERKS0_PKNS_7TVarRecEii 0000000140009e90     rtle:dstring.o
 0001:00008f00       _ZN6System14AnsiStringBase11FormatFloatERKS0_RKei 0000000140009f00     rtle:dstring.o
 0001:00008fc0       _ZN6System14AnsiStringBase7vprintfEiPKcPc 0000000140009fc0     rtle:dstring.o
 0001:00009030       _ZN6System14AnsiStringBase11cat_vprintfEiPKcPc 000000014000a030     rtle:dstring.o
 0001:000090b0       _ZN6System14AnsiStringBase11FloatToStrFEeNS0_18TStringFloatFormatEiii 000000014000a0b0     rtle:dstring.o
 0001:00009160       _ZN6System14AnsiStringBase8IntToHexEiii 000000014000a160     rtle:dstring.o
 0001:000091f0       _ZN6System14AnsiStringBase9CurrToStrERKNS_8CurrencyEi 000000014000a1f0     rtle:dstring.o
 0001:00009280       _ZN6System14AnsiStringBase10CurrToStrFERKNS_8CurrencyENS0_18TStringFloatFormatEii 000000014000a280     rtle:dstring.o
 0001:00009320       _ZNK6System14AnsiStringBase15WideCharBufSizeEi 000000014000a320     rtle:dstring.o
 0001:00009360       _ZNK6System14AnsiStringBase8WideCharEPwii 000000014000a360     rtle:dstring.o
 0001:000093a0       _ZN6System14AnsiStringBase7Insert1ERKS0_i 000000014000a3a0     rtle:dstring.o
 0001:000093c0       _ZN6System14AnsiStringBase7Insert0ERKS0_i 000000014000a3c0     rtle:dstring.o
 0001:00009510       _ZN6System14AnsiStringBase4swapERS0_ 000000014000a510     rtle:dstring.o
 0001:00009540       _ZN6System14AnsiStringBase7Delete1Eii 000000014000a540     rtle:dstring.o
 0001:00009560       _ZN6System14AnsiStringBase7Delete0Eii 000000014000a560     rtle:dstring.o
 0001:00009680       _ZNK6System14AnsiStringBase4Pos1ERKS0_ 000000014000a680     rtle:dstring.o
 0001:000096a0       _ZNK6System14AnsiStringBase4Pos0ERKS0_ 000000014000a6a0     rtle:dstring.o
 0001:000096c0       _ZNK6System14AnsiStringBase9LowerCaseEi 000000014000a6c0     rtle:dstring.o
 0001:00009720       _ZNK6System14AnsiStringBase9UpperCaseEi 000000014000a720     rtle:dstring.o
 0001:00009780       _ZNK6System14AnsiStringBase4TrimEi 000000014000a780     rtle:dstring.o
 0001:000097e0       _ZNK6System14AnsiStringBase8TrimLeftEi 000000014000a7e0     rtle:dstring.o
 0001:00009840       _ZNK6System14AnsiStringBase9TrimRightEi 000000014000a840     rtle:dstring.o
 0001:000098a0       _ZNK6System14AnsiStringBase10SubString1Eii 000000014000a8a0     rtle:dstring.o
 0001:00009950       _ZNK6System14AnsiStringBase10SubString0Eii 000000014000a950     rtle:dstring.o
 0001:000099f0       _ZNK6System14AnsiStringBase5ToIntEv 000000014000a9f0     rtle:dstring.o
 0001:00009a40       _ZNK6System14AnsiStringBase8ToIntDefEi 000000014000aa40     rtle:dstring.o
 0001:00009aa0       _ZNK6System14AnsiStringBase8ToDoubleEv 000000014000aaa0     rtle:dstring.o
 0001:00009b00       _ZNK6System14AnsiStringBase12IsDelimiter1ERKS0_i 000000014000ab00     rtle:dstring.o
 0001:00009b10       _ZNK6System14AnsiStringBase12IsDelimiter0ERKS0_i 000000014000ab10     rtle:dstring.o
 0001:00009ba0       _ZNK6System14AnsiStringBase8AnsiPos1ERKS0_ 000000014000aba0     rtle:dstring.o
 0001:00009bb0       _ZNK6System14AnsiStringBase8AnsiPos0ERKS0_ 000000014000abb0     rtle:dstring.o
 0001:00009bd0       _ZNK6System14AnsiStringBase16IsPathDelimiter1Ei 000000014000abd0     rtle:dstring.o
 0001:00009be0       _ZNK6System14AnsiStringBase16IsPathDelimiter0Ei 000000014000abe0     rtle:dstring.o
 0001:00009bf0       _ZNK6System14AnsiStringBase14LastDelimiter1ERKS0_ 000000014000abf0     rtle:dstring.o
 0001:00009c00       _ZNK6System14AnsiStringBase14LastDelimiter0ERKS0_ 000000014000ac00     rtle:dstring.o
 0001:00009c90       _ZNK6System14AnsiStringBase9ByteType1Ei 000000014000ac90     rtle:dstring.o
 0001:00009cb0       _ZNK6System14AnsiStringBase9ByteType0Ei 000000014000acb0     rtle:dstring.o
 0001:00009cd0       _ZNK6System14AnsiStringBase11IsLeadByte1Ei 000000014000acd0     rtle:dstring.o
 0001:00009cf0       _ZNK6System14AnsiStringBase11IsLeadByte0Ei 000000014000acf0     rtle:dstring.o
 0001:00009d10       _ZNK6System14AnsiStringBase12IsTrailByte1Ei 000000014000ad10     rtle:dstring.o
 0001:00009d30       _ZNK6System14AnsiStringBase12IsTrailByte0Ei 000000014000ad30     rtle:dstring.o
 0001:00009d50       _ZNK6System14AnsiStringBase7BytesOfEv 000000014000ad50     rtle:dstring.o
 0001:00009d70       _ZNK6System14AnsiStringBase12AnsiLastCharEv 000000014000ad70     rtle:dstring.o
 0001:00009da0       sprintf                    000000014000ada0     libucrt:lib64_libucrt_extra_a-ucrt_sprintf.o
 0001:00009e00       vsnprintf                  000000014000ae00     libucrt:lib64_libucrt_extra_a-ucrt_vsnprintf.o
 0001:00009e50       _ZN21Idhttpwebbrokerbridge17TIdHTTPAppRequestC3EPN9Idcontext10TIdContextEPN18Idcustomhttpserver18TIdHTTPRequestInfoEPNS4_19TIdHTTPResponseInfoE 000000014000ae50     IdHTTPWebBrokerBridge.o
 0001:0000a060       _ZN21Idhttpwebbrokerbridge17TIdHTTPAppRequestD0Ev 000000014000b060     IdHTTPWebBrokerBridge.o
 0001:0000a0d0       _ZN21Idhttpwebbrokerbridge17TIdHTTPAppRequest15GetDateVariableEi 000000014000b0d0     IdHTTPWebBrokerBridge.o
 0001:0000a170       _ZN21Idhttpwebbrokerbridge17TIdHTTPAppRequest18GetIntegerVariableEi 000000014000b170     IdHTTPWebBrokerBridge.o
 0001:0000a1f0       _ZN21Idhttpwebbrokerbridge17TIdHTTPAppRequest14GetRawPathInfoEv 000000014000b1f0     IdHTTPWebBrokerBridge.o
 0001:0000a220       _ZN21Idhttpwebbrokerbridge17TIdHTTPAppRequest11GetRemoteIPEv 000000014000b220     IdHTTPWebBrokerBridge.o
 0001:0000a250       _ZN21Idhttpwebbrokerbridge17TIdHTTPAppRequest13GetRawContentEv 000000014000b250     IdHTTPWebBrokerBridge.o
 0001:0000a330       _ZN21Idhttpwebbrokerbridge17TIdHTTPAppRequest17GetStringVariableEi 000000014000b330     IdHTTPWebBrokerBridge.o
 0001:0000ab30       _ZN21Idhttpwebbrokerbridge17TIdHTTPAppRequest14GetFieldByNameEN6System13UnicodeStringE 000000014000bb30     IdHTTPWebBrokerBridge.o
 0001:0000ab60       _ZN21Idhttpwebbrokerbridge17TIdHTTPAppRequest10ReadClientEPvi 000000014000bb60     IdHTTPWebBrokerBridge.o
 0001:0000ab80       _ZN21Idhttpwebbrokerbridge17TIdHTTPAppRequest10ReadStringEi 000000014000bb80     IdHTTPWebBrokerBridge.o
 0001:0000ac00       _ZN21Idhttpwebbrokerbridge17TIdHTTPAppRequest12TranslateURIEN6System13UnicodeStringE 000000014000bc00     IdHTTPWebBrokerBridge.o
 0001:0000ac20       _ZN21Idhttpwebbrokerbridge17TIdHTTPAppRequest12WriteHeadersEiN6System13UnicodeStringES2_ 000000014000bc20     IdHTTPWebBrokerBridge.o
 0001:0000ac80       _ZN21Idhttpwebbrokerbridge17TIdHTTPAppRequest11WriteStringEN6System13UnicodeStringE 000000014000bc80     IdHTTPWebBrokerBridge.o
 0001:0000acb0       _ZN21Idhttpwebbrokerbridge17TIdHTTPAppRequest11WriteClientEPvi 000000014000bcb0     IdHTTPWebBrokerBridge.o
 0001:0000ad70       _ZN21Idhttpwebbrokerbridge18TIdHTTPAppResponseC3EPN3Web7Httpapp11TWebRequestEPN9Idcontext10TIdContextEPN18Idcustomhttpserver18TIdHTTPRequestInfoEPNS8_19TIdHTTPResponseInfoE 000000014000bd70     IdHTTPWebBrokerBridge.o
 0001:0000af70       _ZN21Idhttpwebbrokerbridge18TIdHTTPAppResponse10GetContentEv 000000014000bf70     IdHTTPWebBrokerBridge.o
 0001:0000afa0       _ZN21Idhttpwebbrokerbridge18TIdHTTPAppResponse13GetLogMessageEv 000000014000bfa0     IdHTTPWebBrokerBridge.o
 0001:0000afc0       _ZN21Idhttpwebbrokerbridge18TIdHTTPAppResponse13GetStatusCodeEv 000000014000bfc0     IdHTTPWebBrokerBridge.o
 0001:0000afd0       _ZN21Idhttpwebbrokerbridge18TIdHTTPAppResponse15GetDateVariableEi 000000014000bfd0     IdHTTPWebBrokerBridge.o
 0001:0000b120       _ZN21Idhttpwebbrokerbridge18TIdHTTPAppResponse15SetDateVariableEiN6System9TDateTimeE 000000014000c120     IdHTTPWebBrokerBridge.o
 0001:0000b270       _ZN21Idhttpwebbrokerbridge18TIdHTTPAppResponse18GetIntegerVariableEi 000000014000c270     IdHTTPWebBrokerBridge.o
 0001:0000b360       _ZN21Idhttpwebbrokerbridge18TIdHTTPAppResponse18SetIntegerVariableEix 000000014000c360     IdHTTPWebBrokerBridge.o
 0001:0000b450       _ZN21Idhttpwebbrokerbridge18TIdHTTPAppResponse17GetStringVariableEi 000000014000c450     IdHTTPWebBrokerBridge.o
 0001:0000b7d0       _ZN21Idhttpwebbrokerbridge18TIdHTTPAppResponse17SetStringVariableEiN6System13UnicodeStringE 000000014000c7d0     IdHTTPWebBrokerBridge.o
 0001:0000bb50       _ZN21Idhttpwebbrokerbridge18TIdHTTPAppResponse12SendRedirectEN6System13UnicodeStringE 000000014000cb50     IdHTTPWebBrokerBridge.o
 0001:0000bb80       _ZN21Idhttpwebbrokerbridge18TIdHTTPAppResponse12SendResponseEv 000000014000cb80     IdHTTPWebBrokerBridge.o
 0001:0000bce0       _ZN21Idhttpwebbrokerbridge18TIdHTTPAppResponse10SendStreamEPN6System7Classes7TStreamE 000000014000cce0     IdHTTPWebBrokerBridge.o
 0001:0000bd10       _ZN21Idhttpwebbrokerbridge18TIdHTTPAppResponse4SentEv 000000014000cd10     IdHTTPWebBrokerBridge.o
 0001:0000bd20       _ZN21Idhttpwebbrokerbridge18TIdHTTPAppResponse10SetContentEN6System13UnicodeStringE 000000014000cd20     IdHTTPWebBrokerBridge.o
 0001:0000bd60       _ZN21Idhttpwebbrokerbridge18TIdHTTPAppResponse13SetLogMessageEN6System13UnicodeStringE 000000014000cd60     IdHTTPWebBrokerBridge.o
 0001:0000bd70       _ZN21Idhttpwebbrokerbridge18TIdHTTPAppResponse13SetStatusCodeEi 000000014000cd70     IdHTTPWebBrokerBridge.o
 0001:0000bd90       _ZN21Idhttpwebbrokerbridge18TIdHTTPAppResponse16SetContentStreamEPN6System7Classes7TStreamE 000000014000cd90     IdHTTPWebBrokerBridge.o
 0001:0000bdc0       _ZN21Idhttpwebbrokerbridge18TIdHTTPAppResponse27MoveCookiesAndCustomHeadersEv 000000014000cdc0     IdHTTPWebBrokerBridge.o
 0001:0000bf30       _ZN21Idhttpwebbrokerbridge22TIdHTTPWebBrokerBridge14DoCommandOtherEPN9Idcontext10TIdContextEPN18Idcustomhttpserver18TIdHTTPRequestInfoEPNS4_19TIdHTTPResponseInfoE 000000014000cf30     IdHTTPWebBrokerBridge.o
 0001:0000bf50       _ZN21Idhttpwebbrokerbridge22TIdHTTPWebBrokerBridge13InitComponentEv 000000014000cf50     IdHTTPWebBrokerBridge.o
 0001:0000bf60       _ZN6System8Generics11Collections14TEnumerator__1IPNS_7Classes15TCollectionItemEE12DoGetCurrentEv 000000014000cf60     IdHTTPWebBrokerBridge.o
 0001:0000bf70       _ZN6System8Generics11Collections14TEnumerator__1IPNS_7Classes15TCollectionItemEE10DoMoveNextEv 000000014000cf70     IdHTTPWebBrokerBridge.o
 0001:0000bf80       _ZN6System8Generics11Collections14TEnumerable__1IPNS_7Classes15TCollectionItemEE15DoGetEnumeratorEv 000000014000cf80     IdHTTPWebBrokerBridge.o
 0001:0000bf90       _ZN21Idhttpwebbrokerbridge36TIdHTTPWebBrokerBridgeRequestHandlerv04cctrEv 000000014000cf90     IdHTTPWebBrokerBridge.o
 0001:0000bfa0       _ZN21Idhttpwebbrokerbridge36TIdHTTPWebBrokerBridgeRequestHandlerv04cdtrEv 000000014000cfa0     IdHTTPWebBrokerBridge.o
 0001:0000bff0       _ZN21Idhttpwebbrokerbridge22TIdHTTPWebBrokerBridge12DoCommandGetEPN9Idcontext10TIdContextEPN18Idcustomhttpserver18TIdHTTPRequestInfoEPNS4_19TIdHTTPResponseInfoE 000000014000cff0     IdHTTPWebBrokerBridge.o
 0001:0000c020       _ZN21Idhttpwebbrokerbridge22TIdHTTPWebBrokerBridge17RunWebModuleClassEPN9Idcontext10TIdContextEPN18Idcustomhttpserver18TIdHTTPRequestInfoEPNS4_19TIdHTTPResponseInfoE 000000014000d020     IdHTTPWebBrokerBridge.o
 0001:0000c2c0       _ZN21Idhttpwebbrokerbridge22TIdHTTPWebBrokerBridge22RegisterWebModuleClassEN6System7Classes15TComponentClassE 000000014000d2c0     IdHTTPWebBrokerBridge.o
 0001:0000c2d0       _ZN21Idhttpwebbrokerbridge12FinalizationEv 000000014000d2d0     IdHTTPWebBrokerBridge.o
 0001:0000c2e0       _ZN21Idhttpwebbrokerbridge14initializationEv 000000014000d2e0     IdHTTPWebBrokerBridge.o
 0001:0000c310       _ZN6System8Generics11Collections14TEnumerable__1IPNS_7Classes15TCollectionItemEE11ToArrayImplEx 000000014000d310     IdHTTPWebBrokerBridge.o
 0001:0000c400       _ZN6System8Generics11Collections14TEnumerable__1IPNS_7Classes15TCollectionItemEED0Ev 000000014000d400     IdHTTPWebBrokerBridge.o
 0001:0000c440       _ZN6System8Generics11Collections14TEnumerable__1IPNS_7Classes15TCollectionItemEE13GetEnumeratorEv 000000014000d440     IdHTTPWebBrokerBridge.o
 0001:0000c460       _ZN6System8Generics11Collections14TEnumerable__1IPNS_7Classes15TCollectionItemEE7ToArrayEv 000000014000d460     IdHTTPWebBrokerBridge.o
 0001:0000c630       _ZN6System8Generics11Collections14TEnumerator__1IPNS_7Classes15TCollectionItemEE8MoveNextEv 000000014000d630     IdHTTPWebBrokerBridge.o
 0001:0000c650       _ZN6System8Generics11Collections8TList__1IPNS_7Classes15TCollectionItemEE11FListHelperEv 000000014000d650     IdHTTPWebBrokerBridge.o
 0001:0000c660       _ZN6System8Generics11Collections8TList__1IPNS_7Classes15TCollectionItemEE7GetListEv 000000014000d660     IdHTTPWebBrokerBridge.o
 0001:0000c690       _ZN6System8Generics11Collections8TList__1IPNS_7Classes15TCollectionItemEE8GetPListEv 000000014000d690     IdHTTPWebBrokerBridge.o
 0001:0000c6a0       _ZN6System8Generics11Collections8TList__1IPNS_7Classes15TCollectionItemEE11GetCapacityEv 000000014000d6a0     IdHTTPWebBrokerBridge.o
 0001:0000c6b0       _ZN6System8Generics11Collections8TList__1IPNS_7Classes15TCollectionItemEE11SetCapacityEx 000000014000d6b0     IdHTTPWebBrokerBridge.o
 0001:0000c6f0       _ZN6System8Generics11Collections8TList__1IPNS_7Classes15TCollectionItemEE8SetCountEx 000000014000d6f0     IdHTTPWebBrokerBridge.o
 0001:0000c710       _ZN6System8Generics11Collections8TList__1IPNS_7Classes15TCollectionItemEE10GetIsEmptyEv 000000014000d710     IdHTTPWebBrokerBridge.o
 0001:0000c720       _ZN6System8Generics11Collections8TList__1IPNS_7Classes15TCollectionItemEE14CheckItemRangeEx 000000014000d720     IdHTTPWebBrokerBridge.o
 0001:0000c750       _ZN6System8Generics11Collections8TList__1IPNS_7Classes15TCollectionItemEE7GetItemEx 000000014000d750     IdHTTPWebBrokerBridge.o
 0001:0000c790       _ZN6System8Generics11Collections8TList__1IPNS_7Classes15TCollectionItemEE7SetItemExS5_ 000000014000d790     IdHTTPWebBrokerBridge.o
 0001:0000c7c0       _ZN6System8Generics11Collections8TList__1IPNS_7Classes15TCollectionItemEE9GrowCheckEx 000000014000d7c0     IdHTTPWebBrokerBridge.o
 0001:0000c7e0       _ZN6System8Generics11Collections8TList__1IPNS_7Classes15TCollectionItemEE8DoDeleteExNS1_23TCollectionNotificationE 000000014000d7e0     IdHTTPWebBrokerBridge.o
 0001:0000c800       _ZN6System8Generics11Collections8TList__1IPNS_7Classes15TCollectionItemEE14InternalNotifyEPKvNS1_23TCollectionNotificationE 000000014000d800     IdHTTPWebBrokerBridge.o
 0001:0000c820       _ZN6System8Generics11Collections8TList__1IPNS_7Classes15TCollectionItemEE12UpdateNotifyEv 000000014000d820     IdHTTPWebBrokerBridge.o
 0001:0000c870       _ZN6System8Generics11Collections8TList__1IPNS_7Classes15TCollectionItemEE11SetOnNotifyEU9__closurePFvPNS_7TObjectES5_NS1_23TCollectionNotificationEE 000000014000d870     IdHTTPWebBrokerBridge.o
 0001:0000c890       _ZN6System8Generics11Collections8TList__1IPNS_7Classes15TCollectionItemEE15InternalCompareEPKvS8_ 000000014000d890     IdHTTPWebBrokerBridge.o
 0001:0000c8b0       _ZN6System8Generics11Collections8TList__1IPNS_7Classes15TCollectionItemEE14UpdateComparerENS_15DelphiInterfaceINS0_8Defaults12IComparer__1IS5_EEEE 000000014000d8b0     IdHTTPWebBrokerBridge.o
 0001:0000c910       _ZN6System8Generics11Collections8TList__1IPNS_7Classes15TCollectionItemEE9ItemValueES5_ 000000014000d910     IdHTTPWebBrokerBridge.o
 0001:0000c980       _ZN6System8Generics11Collections8TList__1IPNS_7Classes15TCollectionItemEE15DoGetEnumeratorEv 000000014000d980     IdHTTPWebBrokerBridge.o
 0001:0000c9a0       _ZN6System8Generics11Collections8TList__1IPNS_7Classes15TCollectionItemEE6NotifyES5_NS1_23TCollectionNotificationE 000000014000d9a0     IdHTTPWebBrokerBridge.o
 0001:0000c9d0       _ZN6System8Generics11Collections8TList__1IPNS_7Classes15TCollectionItemEEC3Ev 000000014000d9d0     IdHTTPWebBrokerBridge.o
 0001:0000ca70       _ZN6System8Generics11Collections8TList__1IPNS_7Classes15TCollectionItemEEC3ENS_15DelphiInterfaceINS0_8Defaults12IComparer__1IS5_EEEE 000000014000da70     IdHTTPWebBrokerBridge.o
 0001:0000cb40       _ZN6System8Generics11Collections8TList__1IPNS_7Classes15TCollectionItemEEC3EPNS1_14TEnumerable__1IS5_EE 000000014000db40     IdHTTPWebBrokerBridge.o
 0001:0000cbf0       _ZN6System8Generics11Collections8TList__1IPNS_7Classes15TCollectionItemEEC3ENS_15DelphiInterfaceINS_14IEnumerable__1IS5_EEEE 000000014000dbf0     IdHTTPWebBrokerBridge.o
 0001:0000cca0       _ZN6System8Generics11Collections8TList__1IPNS_7Classes15TCollectionItemEEC3EPKS5_x 000000014000dca0     IdHTTPWebBrokerBridge.o
 0001:0000cd50       _ZN6System8Generics11Collections8TList__1IPNS_7Classes15TCollectionItemEED0Ev 000000014000dd50     IdHTTPWebBrokerBridge.o
 0001:0000cdb0       _ZN6System8Generics11Collections8TList__1IPNS_7Classes15TCollectionItemEE5ErrorENS_13UnicodeStringEx 000000014000ddb0     IdHTTPWebBrokerBridge.o
 0001:0000ce00       _ZN6System8Generics11Collections8TList__1IPNS_7Classes15TCollectionItemEE5ErrorEPNS_13TResStringRecEx 000000014000de00     IdHTTPWebBrokerBridge.o
 0001:0000cea0       _ZN6System8Generics11Collections8TList__1IPNS_7Classes15TCollectionItemEE3AddES5_ 000000014000dea0     IdHTTPWebBrokerBridge.o
 0001:0000cec0       _ZN6System8Generics11Collections8TList__1IPNS_7Classes15TCollectionItemEE8AddRangeEPKS5_x 000000014000dec0     IdHTTPWebBrokerBridge.o
 0001:0000cef0       _ZN6System8Generics11Collections8TList__1IPNS_7Classes15TCollectionItemEE8AddRangeENS_15DelphiInterfaceINS_14IEnumerable__1IS5_EEEE 000000014000def0     IdHTTPWebBrokerBridge.o
 0001:0000cf20       _ZN6System8Generics11Collections8TList__1IPNS_7Classes15TCollectionItemEE8AddRangeEPNS1_14TEnumerable__1IS5_EE 000000014000df20     IdHTTPWebBrokerBridge.o
 0001:0000cf50       _ZN6System8Generics11Collections8TList__1IPNS_7Classes15TCollectionItemEE6InsertExS5_ 000000014000df50     IdHTTPWebBrokerBridge.o
 0001:0000cf70       _ZN6System8Generics11Collections8TList__1IPNS_7Classes15TCollectionItemEE11InsertRangeExPKS5_xx 000000014000df70     IdHTTPWebBrokerBridge.o
 0001:0000cfa0       _ZN6System8Generics11Collections8TList__1IPNS_7Classes15TCollectionItemEE11InsertRangeExPKS5_x 000000014000dfa0     IdHTTPWebBrokerBridge.o
 0001:0000cfd0       _ZN6System8Generics11Collections8TList__1IPNS_7Classes15TCollectionItemEE11InsertRangeExNS_15DelphiInterfaceINS_14IEnumerable__1IS5_EEEE 000000014000dfd0     IdHTTPWebBrokerBridge.o
 0001:0000d0c0       _ZN6System8Generics11Collections8TList__1IPNS_7Classes15TCollectionItemEE11InsertRangeExPNS1_14TEnumerable__1IS5_EE 000000014000e0c0     IdHTTPWebBrokerBridge.o
 0001:0000d230       _ZN6System8Generics11Collections8TList__1IPNS_7Classes15TCollectionItemEE4PackEv 000000014000e230     IdHTTPWebBrokerBridge.o
 0001:0000d300       _ZN6System8Generics11Collections8TList__1IPNS_7Classes15TCollectionItemEE4PackENS_15DelphiInterfaceINS6_10TEmptyFuncEEE 000000014000e300     IdHTTPWebBrokerBridge.o
 0001:0000d3d0       _ZN6System8Generics11Collections8TList__1IPNS_7Classes15TCollectionItemEE6RemoveES5_ 000000014000e3d0     IdHTTPWebBrokerBridge.o
 0001:0000d400       _ZN6System8Generics11Collections8TList__1IPNS_7Classes15TCollectionItemEE10RemoveItemES5_NS_5Types10TDirectionE 000000014000e400     IdHTTPWebBrokerBridge.o
 0001:0000d440       _ZN6System8Generics11Collections8TList__1IPNS_7Classes15TCollectionItemEE6DeleteEx 000000014000e440     IdHTTPWebBrokerBridge.o
 0001:0000d460       _ZN6System8Generics11Collections8TList__1IPNS_7Classes15TCollectionItemEE11DeleteRangeExx 000000014000e460     IdHTTPWebBrokerBridge.o
 0001:0000d480       _ZN6System8Generics11Collections8TList__1IPNS_7Classes15TCollectionItemEE11ExtractItemES5_NS_5Types10TDirectionE 000000014000e480     IdHTTPWebBrokerBridge.o
 0001:0000d4d0       _ZN6System8Generics11Collections8TList__1IPNS_7Classes15TCollectionItemEE7ExtractES5_ 000000014000e4d0     IdHTTPWebBrokerBridge.o
 0001:0000d510       _ZN6System8Generics11Collections8TList__1IPNS_7Classes15TCollectionItemEE9ExtractAtEx 000000014000e510     IdHTTPWebBrokerBridge.o
 0001:0000d560       _ZN6System8Generics11Collections8TList__1IPNS_7Classes15TCollectionItemEE8ExchangeExx 000000014000e560     IdHTTPWebBrokerBridge.o
 0001:0000d580       _ZN6System8Generics11Collections8TList__1IPNS_7Classes15TCollectionItemEE4MoveExx 000000014000e580     IdHTTPWebBrokerBridge.o
 0001:0000d5a0       _ZN6System8Generics11Collections8TList__1IPNS_7Classes15TCollectionItemEE5FirstEv 000000014000e5a0     IdHTTPWebBrokerBridge.o
 0001:0000d5d0       _ZN6System8Generics11Collections8TList__1IPNS_7Classes15TCollectionItemEE4LastEv 000000014000e5d0     IdHTTPWebBrokerBridge.o
 0001:0000d610       _ZN6System8Generics11Collections8TList__1IPNS_7Classes15TCollectionItemEE5ClearEv 000000014000e610     IdHTTPWebBrokerBridge.o
 0001:0000d630       _ZN6System8Generics11Collections8TList__1IPNS_7Classes15TCollectionItemEE6ExpandEv 000000014000e630     IdHTTPWebBrokerBridge.o
 0001:0000d670       _ZN6System8Generics11Collections8TList__1IPNS_7Classes15TCollectionItemEE8ContainsES5_ 000000014000e670     IdHTTPWebBrokerBridge.o
 0001:0000d6a0       _ZN6System8Generics11Collections8TList__1IPNS_7Classes15TCollectionItemEE7IndexOfES5_ 000000014000e6a0     IdHTTPWebBrokerBridge.o
 0001:0000d6d0       _ZN6System8Generics11Collections8TList__1IPNS_7Classes15TCollectionItemEE11IndexOfItemES5_NS_5Types10TDirectionE 000000014000e6d0     IdHTTPWebBrokerBridge.o
 0001:0000d710       _ZN6System8Generics11Collections8TList__1IPNS_7Classes15TCollectionItemEE11LastIndexOfES5_ 000000014000e710     IdHTTPWebBrokerBridge.o
 0001:0000d740       _ZN6System8Generics11Collections8TList__1IPNS_7Classes15TCollectionItemEE7ReverseEv 000000014000e740     IdHTTPWebBrokerBridge.o
 0001:0000d760       _ZN6System8Generics11Collections8TList__1IPNS_7Classes15TCollectionItemEE4SortEv 000000014000e760     IdHTTPWebBrokerBridge.o
 0001:0000d7a0       _ZN6System8Generics11Collections8TList__1IPNS_7Classes15TCollectionItemEE4SortENS_15DelphiInterfaceINS0_8Defaults12IComparer__1IS5_EEEE 000000014000e7a0     IdHTTPWebBrokerBridge.o
 0001:0000d7e0       _ZN6System8Generics11Collections8TList__1IPNS_7Classes15TCollectionItemEE4SortENS_15DelphiInterfaceINS0_8Defaults12IComparer__1IS5_EEEExx 000000014000e7e0     IdHTTPWebBrokerBridge.o
 0001:0000d820       _ZN6System8Generics11Collections8TList__1IPNS_7Classes15TCollectionItemEE12BinarySearchES5_Rx 000000014000e820     IdHTTPWebBrokerBridge.o
 0001:0000d880       _ZN6System8Generics11Collections8TList__1IPNS_7Classes15TCollectionItemEE12BinarySearchES5_RxNS_15DelphiInterfaceINS0_8Defaults12IComparer__1IS5_EEEE 000000014000e880     IdHTTPWebBrokerBridge.o
 0001:0000d8e0       _ZN6System8Generics11Collections8TList__1IPNS_7Classes15TCollectionItemEE12BinarySearchES5_RxNS_15DelphiInterfaceINS0_8Defaults12IComparer__1IS5_EEEExx 000000014000e8e0     IdHTTPWebBrokerBridge.o
 0001:0000d940       _ZN6System8Generics11Collections8TList__1IPNS_7Classes15TCollectionItemEE12BinarySearchES5_Ri 000000014000e940     IdHTTPWebBrokerBridge.o
 0001:0000d9a0       _ZN6System8Generics11Collections8TList__1IPNS_7Classes15TCollectionItemEE12BinarySearchES5_RiNS_15DelphiInterfaceINS0_8Defaults12IComparer__1IS5_EEEE 000000014000e9a0     IdHTTPWebBrokerBridge.o
 0001:0000d9f0       _ZN6System8Generics11Collections8TList__1IPNS_7Classes15TCollectionItemEE12BinarySearchES5_RiNS_15DelphiInterfaceINS0_8Defaults12IComparer__1IS5_EEEEii 000000014000e9f0     IdHTTPWebBrokerBridge.o
 0001:0000da40       _ZN6System8Generics11Collections8TList__1IPNS_7Classes15TCollectionItemEE10TrimExcessEv 000000014000ea40     IdHTTPWebBrokerBridge.o
 0001:0000da60       _ZN6System8Generics11Collections8TList__1IPNS_7Classes15TCollectionItemEE7ToArrayEv 000000014000ea60     IdHTTPWebBrokerBridge.o
 0001:0000da90       _ZN6System8Generics11Collections8TList__1IPNS_7Classes15TCollectionItemEE13GetEnumeratorEv 000000014000ea90     IdHTTPWebBrokerBridge.o
 0001:0000dab0       _ZN6System8Generics11Collections8TList__1IPNS_7Classes15TCollectionItemEE11TEnumerator10GetCurrentEv 000000014000eab0     IdHTTPWebBrokerBridge.o
 0001:0000dad0       _ZN6System8Generics11Collections8TList__1IPNS_7Classes15TCollectionItemEE11TEnumerator12DoGetCurrentEv 000000014000ead0     IdHTTPWebBrokerBridge.o
 0001:0000db00       _ZN6System8Generics11Collections8TList__1IPNS_7Classes15TCollectionItemEE11TEnumerator10DoMoveNextEv 000000014000eb00     IdHTTPWebBrokerBridge.o
 0001:0000db20       _ZN6System8Generics11Collections8TList__1IPNS_7Classes15TCollectionItemEE11TEnumeratorC3EPS6_ 000000014000eb20     IdHTTPWebBrokerBridge.o
 0001:0000dbe0       _ZN6System8Generics11Collections8TList__1IPNS_7Classes15TCollectionItemEE11TEnumerator8MoveNextEv 000000014000ebe0     IdHTTPWebBrokerBridge.o
 0001:0000dc00       _ZN6System8Generics8Defaults12TComparer__1IPNS_7Classes15TCollectionItemEE13EQOperCompareEPvS5_S5_ 000000014000ec00     IdHTTPWebBrokerBridge.o
 0001:0000dc40       _ZN6System8Generics8Defaults12TComparer__1IPNS_7Classes15TCollectionItemEE25TryUseRecEqualityOperatorEv 000000014000ec40     IdHTTPWebBrokerBridge.o
 0001:0000dcd0       _ZN6System8Generics8Defaults12TComparer__1IPNS_7Classes15TCollectionItemEE8_DefaultEv 000000014000ecd0     IdHTTPWebBrokerBridge.o
 0001:0000dcf0       _ZN6System8Generics8Defaults12TComparer__1IPNS_7Classes15TCollectionItemEE10_ConstructENS_15DelphiInterfaceINS1_14TComparison__1IS5_EEEE 000000014000ecf0     IdHTTPWebBrokerBridge.o
 0001:0000dd00       _ZN6System8Generics8Defaults12TComparer__1IPNS_7Classes15TCollectionItemEE7DefaultEv 000000014000ed00     IdHTTPWebBrokerBridge.o
 0001:0000dd30       _ZN6System8Generics8Defaults12TComparer__1IPNS_7Classes15TCollectionItemEE9ConstructENS_15DelphiInterfaceINS1_14TComparison__1IS5_EEEE 000000014000ed30     IdHTTPWebBrokerBridge.o
 0001:0000dd60       _ZN6System8Generics11Collections24@TList__1_Pack_1__ActRecIPNS_7Classes15TCollectionItemEE7_0_BodyEPKv 000000014000ed60     IdHTTPWebBrokerBridge.o
 0001:0000dd90       _ZN6System8Generics11Collections24@TList__1_Pack_0__ActRecIPNS_7Classes15TCollectionItemEE7_0_BodyEPKv 000000014000ed90     IdHTTPWebBrokerBridge.o
 0001:0000ddb0       _ZN6System8Generics11Collections6TArray4SortIPNS_7Classes15TCollectionItemEEEvPT_xNS_15DelphiInterfaceINS0_8Defaults12IComparer__1IS8_EEEExx 000000014000edb0     IdHTTPWebBrokerBridge.o
 0001:0000de40       _ZN6System8Generics11Collections6TArray12BinarySearchIPNS_7Classes15TCollectionItemEEEbPKT_xS8_RxNS_15DelphiInterfaceINS0_8Defaults12IComparer__1IS8_EEEExx 000000014000ee40     IdHTTPWebBrokerBridge.o
 0001:0000def0       _ZN6System8Generics11Collections6TArray12BinarySearchIPNS_7Classes15TCollectionItemEEEbPKT_xS8_RiNS_15DelphiInterfaceINS0_8Defaults12IComparer__1IS8_EEEEii 000000014000eef0     IdHTTPWebBrokerBridge.o
 0001:0000dfc0       _ZN6System8Generics11Collections6TArray9QuickSortIPNS_7Classes15TCollectionItemEEEvPT_xNS_15DelphiInterfaceINS0_8Defaults12IComparer__1IS8_EEEExx 000000014000efc0     IdHTTPWebBrokerBridge.o
 0001:0000e1a0       _ZN6System8Generics11Collections6TArray14DoBinarySearchIPNS_7Classes15TCollectionItemEEEbPKT_xS8_RxNS_15DelphiInterfaceINS0_8Defaults12IComparer__1IS8_EEEExx 000000014000f1a0     IdHTTPWebBrokerBridge.o
 0001:0000e260       _ZN6System8Generics8Defaults12TComparer__1IPNS_7Classes15TCollectionItemEE7CompareES5_S5_ 000000014000f260     IdHTTPWebBrokerBridge.o
 0001:0000e8e0       _ZN6System8Internal7Initcpp15InitializeUnitsEPNS1_20TUnitDescriptorBlockES3_ 000000014000f8e0     rtl:System.Internal.InitCPP.o
 0001:0000e930       _ZN6System8Internal7Initcpp13FinalizeUnitsEPNS1_20TUnitDescriptorBlockES3_ 000000014000f930     rtl:System.Internal.InitCPP.o
 0001:0000e980       _ZN6System8Internal7Initcpp15InitializeUnitsEPPNS1_20TUnitDescriptorBlockES4_ 000000014000f980     rtl:System.Internal.InitCPP.o
 0001:0000e9d0       _ZN6System8Internal7Initcpp13FinalizeUnitsEPPNS1_20TUnitDescriptorBlockES4_ 000000014000f9d0     rtl:System.Internal.InitCPP.o
 0001:0000ea20       _ZN6System8Internal7Initcpp15InitializeUnitsEPNS1_15TUnitDescriptorES3_ 000000014000fa20     rtl:System.Internal.InitCPP.o
 0001:0000ea30       _ZN6System8Internal7Initcpp13FinalizeUnitsEPNS1_15TUnitDescriptorES3_ 000000014000fa30     rtl:System.Internal.InitCPP.o
 0001:0000ea40       _ZN6System8Internal7Initcpp15CalculateDegreeEPNS1_20TUnitDescriptorBlockES3_ 000000014000fa40     rtl:System.Internal.InitCPP.o
 0001:0000ea70       _ZN6System8Internal7Initcpp15CalculateDegreeEPPNS1_20TUnitDescriptorBlockES4_ 000000014000fa70     rtl:System.Internal.InitCPP.o
 0001:0000eaa0       _ZN6System8Internal7Initcpp18InitializeRootUnitEPNS1_15TUnitDescriptorE 000000014000faa0     rtl:System.Internal.InitCPP.o
 0001:0000ec80       _ZN6System8Internal7Initcpp16FinalizeRootUnitEPNS1_15TUnitDescriptorE 000000014000fc80     rtl:System.Internal.InitCPP.o
 0001:0000ed50       _ZN6System8Internal7Initcpp12FinalizationEv 000000014000fd50     rtl:System.Internal.InitCPP.o
 0001:0000ed60       _ZN6System8Internal7Initcpp14initializationEv 000000014000fd60     rtl:System.Internal.InitCPP.o
 0001:0000ee40       _Z15__hook_delphiehv       000000014000fe40     libmingw32:lib64_libmingw32_a-hook_delphieh.o
 0001:0000f040       _internal_malloc           0000000140010040     libmingw32:lib64_libmingw32_a-hook_delphimm.o
 0001:0000f060       _internal_allocmem         0000000140010060     libmingw32:lib64_libmingw32_a-hook_delphimm.o
 0001:0000f080       _internal_free             0000000140010080     libmingw32:lib64_libmingw32_a-hook_delphimm.o
 0001:0000f0b0       _internal_realloc          00000001400100b0     libmingw32:lib64_libmingw32_a-hook_delphimm.o
 0001:0000f140       _internal_free_heaps       0000000140010140     libmingw32:lib64_libmingw32_a-hook_delphimm.o
 0001:0000f150       _internal_regmem           0000000140010150     libmingw32:lib64_libmingw32_a-hook_delphimm.o
 0001:0000f160       _internal_unreg_mem        0000000140010160     libmingw32:lib64_libmingw32_a-hook_delphimm.o
 0001:0000f170       _Z15__hook_delphimmv       0000000140010170     libmingw32:lib64_libmingw32_a-hook_delphimm.o
 0001:0000f1e0       _ZN6System23_DelphiExceptionHandlerEPNS_16TExceptionRecordEyPvS2_ 00000001400101e0     rtl:rtl290.bpl
 0001:0000f1f0       _ZN6System9_RunErrorEh     00000001400101f0     rtl:rtl290.bpl
 0001:0000f200       _ZN6System14RegisterModuleEPNS_10TLibModuleE 0000000140010200     rtl:rtl290.bpl
 0001:0000f210       _ZN6System16UnregisterModuleEPNS_10TLibModuleE 0000000140010210     rtl:rtl290.bpl
 0001:0000f220       _ZN6System13FindHInstanceEPv 0000000140010220     rtl:rtl290.bpl
 0001:0000f230       _ZN6System11_DoneExceptEv  0000000140010230     rtl:rtl290.bpl
 0001:0000f240       _ZN6System17_DestroyExceptionEP18TExceptionPointersy 0000000140010240     rtl:rtl290.bpl
 0001:0000f250       _ZN6System12_PackageLoadEPNS_16PackageInfoTableEPNS_10TLibModuleE 0000000140010250     rtl:rtl290.bpl
 0001:0000f260       _ZN6System14_PackageUnloadEPNS_16PackageInfoTableEPNS_10TLibModuleE 0000000140010260     rtl:rtl290.bpl
 0001:0000f270       _ZN6System9_StartLibEPNS_12TInitContextEPNS_16PackageInfoTableEPNS_10TLibModuleEPvPFviS6_EyjS6_ 0000000140010270     rtl:rtl290.bpl
 0001:0000f280       _ZN6System9_StartExeEPNS_16PackageInfoTableEPNS_10TLibModuleE 0000000140010280     rtl:rtl290.bpl
 0001:0000f290       _ZN6System14initializationEv 0000000140010290     rtl:rtl290.bpl
 0001:0000f2a0       _ZN3Web6Webreq17WebRequestHandlerEv 00000001400102a0     inet:inet290.bpl
 0001:0000f2b0       _ZN3Vcl5Forms12TApplication10InitializeEv 00000001400102b0     vcl:vcl290.bpl
 0001:0000f2c0       _ZN3Vcl5Forms12TApplication10CreateFormEN6System7Classes15TComponentClassEPv 00000001400102c0     vcl:vcl290.bpl
 0001:0000f2d0       _ZN3Vcl5Forms12TApplication3RunEv 00000001400102d0     vcl:vcl290.bpl
 0001:0000f2e0       _ZN6System10ExceptAddrEv   00000001400102e0     rtl:rtl290.bpl
 0001:0000f2f0       _ZN6System8Sysutils13ShowExceptionEPNS_7TObjectEPv 00000001400102f0     rtl:rtl290.bpl
 0001:0000f300       _ZN3Vcl5Forms11TCustomFormC3EPN6System7Classes10TComponentE 0000000140010300     vcl:vcl290.bpl
 0001:0000f310       _ZN6System7Classes11TCollection5ClearEv 0000000140010310     rtl:rtl290.bpl
 0001:0000f320       _ZN3Vcl8Controls8TControl7GetTextEv 0000000140010320     vcl:vcl290.bpl
 0001:0000f330       _ZN6System8Sysutils8StrToIntENS_13UnicodeStringE 0000000140010330     rtl:rtl290.bpl
 0001:0000f340       _ZN8Datasnap9Dssession17TDSSessionManager20TerminateAllSessionsEv 0000000140010340     DataSnapServer:DataSnapServer290.bpl
 0001:0000f350       _ZN18Idcustomhttpserver19TIdCustomHTTPServerC3EPN6System7Classes10TComponentE 0000000140010350     IndyProtocols:IndyProtocols290.bpl
 0001:0000f360       _ZN3Vcl5Forms11TCustomFormD0Ev 0000000140010360     vcl:vcl290.bpl
 0001:0000f370       _ZN3Vcl5Forms11TCustomFormC3EPN6System7Classes10TComponentEi 0000000140010370     vcl:vcl290.bpl
 0001:0000f380       _ZN3Vcl5Forms11TCustomFormC3EPN6System7Classes10TComponentEii 0000000140010380     vcl:vcl290.bpl
 0001:0000f390       _ZN6System7TObject6EqualsEPS0_ 0000000140010390     rtl:rtl290.bpl
 0001:0000f3a0       _ZN6System7TObject11GetHashCodeEv 00000001400103a0     rtl:rtl290.bpl
 0001:0000f3b0       _ZN6System7TObject8ToStringEv 00000001400103b0     rtl:rtl290.bpl
 0001:0000f3c0       _ZN6System7Classes10TComponent17SafeCallExceptionEPNS_7TObjectEPv 00000001400103c0     rtl:rtl290.bpl
 0001:0000f3d0       _ZN3Vcl5Forms11TCustomForm17AfterConstructionEv 00000001400103d0     vcl:vcl290.bpl
 0001:0000f3e0       _ZN3Vcl5Forms11TCustomForm17BeforeDestructionEv 00000001400103e0     vcl:vcl290.bpl
 0001:0000f3f0       _ZN6System7TObject8DispatchEPv 00000001400103f0     rtl:rtl290.bpl
 0001:0000f400       _ZN3Vcl5Forms11TCustomForm14DefaultHandlerEPv 0000000140010400     vcl:vcl290.bpl
 0001:0000f410       _ZN6System7TObject11NewInstanceEv 0000000140010410     rtl:rtl290.bpl
 0001:0000f420       _ZN6System7TObject12FreeInstanceEv 0000000140010420     rtl:rtl290.bpl
 0001:0000f430       _ZN3Vcl8Controls11TWinControl8AssignToEPN6System7Classes11TPersistentE 0000000140010430     vcl:vcl290.bpl
 0001:0000f440       _ZN3Vcl5Forms11TCustomForm16DefinePropertiesEPN6System7Classes6TFilerE 0000000140010440     vcl:vcl290.bpl
 0001:0000f450       _ZN6System7Classes11TPersistent6AssignEPS1_ 0000000140010450     rtl:rtl290.bpl
 0001:0000f460       _ZN3Vcl8Controls11TWinControl13AsyncScheduleEPN6System7Classes16TBaseAsyncResultE 0000000140010460     vcl:vcl290.bpl
 0001:0000f470       _ZN3Vcl5Forms11TCustomForm6LoadedEv 0000000140010470     vcl:vcl290.bpl
 0001:0000f480       _ZN3Vcl5Forms11TCustomForm12NotificationEPN6System7Classes10TComponentENS3_10TOperationE 0000000140010480     vcl:vcl290.bpl
 0001:0000f490       _ZN3Vcl5Forms11TCustomForm9ReadStateEPN6System7Classes7TReaderE 0000000140010490     vcl:vcl290.bpl
 0001:0000f4a0       _ZN6System7Classes10TComponent10CanObserveEi 00000001400104a0     rtl:rtl290.bpl
 0001:0000f4b0       _ZN6System7Classes10TComponent13ObserverAddedEiNS_15DelphiInterfaceINS0_9IObserverEEE 00000001400104b0     rtl:rtl290.bpl
 0001:0000f4c0       _ZN6System7Classes10TComponent12GetObserversEv 00000001400104c0     rtl:rtl290.bpl
 0001:0000f4d0       _ZN3Vcl8Controls8TControl7SetNameEN6System13UnicodeStringE 00000001400104d0     vcl:vcl290.bpl
 0001:0000f4e0       _ZN6System7Classes10TComponent14UpdateRegistryEbNS_13UnicodeStringES2_ 00000001400104e0     rtl:rtl290.bpl
 0001:0000f4f0       _ZN3Vcl5Forms11TCustomForm14ValidateRenameEPN6System7Classes10TComponentENS2_13UnicodeStringES6_ 00000001400104f0     vcl:vcl290.bpl
 0001:0000f500       _ZN6System7Classes10TComponent10WriteStateEPNS0_7TWriterE 0000000140010500     rtl:rtl290.bpl
 0001:0000f510       _ZN3Vcl5Forms11TCustomForm14QueryInterfaceERK5_GUIDPv 0000000140010510     vcl:vcl290.bpl
 0001:0000f520       _ZN6System7Classes10TComponent12UpdateActionEPNS0_12TBasicActionE 0000000140010520     rtl:rtl290.bpl
 0001:0000f530       _ZN3Vcl5Forms11TCustomForm12GetDesignDpiEv 0000000140010530     vcl:vcl290.bpl
 0001:0000f540       _ZN3Vcl8Controls8TControl19GetParentCurrentDpiEv 0000000140010540     vcl:vcl290.bpl
 0001:0000f550       _ZN3Vcl8Controls8TControl13GetCurrentPPIEv 0000000140010550     vcl:vcl290.bpl
 0001:0000f560       _ZN3Vcl8Controls11TWinControl17GetDPIForDesignerEv 0000000140010560     vcl:vcl290.bpl
 0001:0000f570       _ZN3Vcl8Controls11TWinControl9CanResizeERiS2_ 0000000140010570     vcl:vcl290.bpl
 0001:0000f580       _ZN3Vcl8Controls11TWinControl11CanAutoSizeERiS2_ 0000000140010580     vcl:vcl290.bpl
 0001:0000f590       _ZN3Vcl8Controls11TWinControl17ConstrainedResizeERiS2_S2_S2_ 0000000140010590     vcl:vcl290.bpl
 0001:0000f5a0       _ZN3Vcl8Controls8TControl18CreateTouchManagerEv 00000001400105a0     vcl:vcl290.bpl
 0001:0000f5b0       _ZN3Vcl5Forms20TScrollingWinControl9DoGestureERKNS_8Controls17TGestureEventInfoERb 00000001400105b0     vcl:vcl290.bpl
 0001:0000f5c0       _ZN3Vcl5Forms20TScrollingWinControl19DoGetGestureOptionsERN6System3SetINS_8Controls19TInteractiveGestureELS5_0ELS5_4EEERNS3_INS4_25TInteractiveGestureOptionELS8_0ELS8_4EEE 00000001400105c0     vcl:vcl290.bpl
 0001:0000f5d0       _ZN3Vcl8Controls11TWinControl22DoStyleElementsChangedEv 00000001400105d0     vcl:vcl290.bpl
 0001:0000f5e0       _ZN3Vcl8Controls8TControl9GetActionEv 00000001400105e0     vcl:vcl290.bpl
 0001:0000f5f0       _ZN3Vcl8Controls11TWinControl15GetClientOriginEv 00000001400105f0     vcl:vcl290.bpl
 0001:0000f600       _ZN3Vcl5Forms11TCustomForm13GetClientRectEv 0000000140010600     vcl:vcl290.bpl
 0001:0000f610       _ZN3Vcl8Controls11TWinControl16GetDeviceContextERP6HWND__ 0000000140010610     vcl:vcl290.bpl
 0001:0000f620       _ZN3Vcl8Controls8TControl10GetEnabledEv 0000000140010620     vcl:vcl290.bpl
 0001:0000f630       _ZN3Vcl5Forms11TCustomForm11GetFloatingEv 0000000140010630     vcl:vcl290.bpl
 0001:0000f640       _ZN3Vcl8Controls8TControl24GetFloatingDockSiteClassEv 0000000140010640     vcl:vcl290.bpl
 0001:0000f650       _ZN3Vcl5Forms11TCustomForm12RequestAlignEv 0000000140010650     vcl:vcl290.bpl
 0001:0000f660       _ZN3Vcl8Controls8TControl19DefaultScalingFlagsEv 0000000140010660     vcl:vcl290.bpl
 0001:0000f670       _ZN3Vcl8Controls8TControl11SetAutoSizeEb 0000000140010670     vcl:vcl290.bpl
 0001:0000f680       _ZN3Vcl8Controls8TControl11SetDragModeEN6System7Uitypes9TDragModeE 0000000140010680     vcl:vcl290.bpl
 0001:0000f690       _ZN3Vcl8Controls8TControl10SetEnabledEb 0000000140010690     vcl:vcl290.bpl
 0001:0000f6a0       _ZN3Vcl5Forms11TCustomForm9SetParentEPNS_8Controls11TWinControlE 00000001400106a0     vcl:vcl290.bpl
 0001:0000f6b0       _ZN3Vcl5Forms11TCustomForm17SetParentBiDiModeEb 00000001400106b0     vcl:vcl290.bpl
 0001:0000f6c0       _ZN3Vcl8Controls8TControl11SetBiDiModeEN6System7Classes9TBiDiModeE 00000001400106c0     vcl:vcl290.bpl
 0001:0000f6d0       _ZN3Vcl8Controls8TControl16GetStyleElementsEv 00000001400106d0     vcl:vcl290.bpl
 0001:0000f6e0       _ZN3Vcl8Controls8TControl16SetStyleElementsEN6System3SetINS0_13TStyleElementELS4_0ELS4_2EEE 00000001400106e0     vcl:vcl290.bpl
 0001:0000f6f0       _ZN3Vcl8Controls8TControl12SetStyleNameEN6System13UnicodeStringE 00000001400106f0     vcl:vcl290.bpl
 0001:0000f700       _ZN3Vcl5Forms11TCustomForm7WndProcERN6Winapi8Messages8TMessageE 0000000140010700     vcl:vcl290.bpl
 0001:0000f710       _ZN3Vcl5Forms11TCustomForm19UpdateStyleElementsEv 0000000140010710     vcl:vcl290.bpl
 0001:0000f720       _ZN3Vcl8Controls8TControl13GetDragImagesEv 0000000140010720     vcl:vcl290.bpl
 0001:0000f730       _ZN3Vcl8Controls11TWinControl24GetAllocatedWindowHandleEv 0000000140010730     vcl:vcl290.bpl
 0001:0000f740       _ZN3Vcl8Controls8TControl19IsCustomStyleActiveEv 0000000140010740     vcl:vcl290.bpl
 0001:0000f750       _ZN3Vcl8Controls8TControl17IsLightStyleColorEN6System7Uitypes6TColorE 0000000140010750     vcl:vcl290.bpl
 0001:0000f760       _ZN3Vcl5Forms11TCustomForm11ScaleForPPIEi 0000000140010760     vcl:vcl290.bpl
 0001:0000f770       _ZN3Vcl8Controls8TControl14InitiateActionEv 0000000140010770     vcl:vcl290.bpl
 0001:0000f780       _ZN3Vcl8Controls11TWinControl10InvalidateEv 0000000140010780     vcl:vcl290.bpl
 0001:0000f790       _ZN3Vcl8Controls11TWinControl7RepaintEv 0000000140010790     vcl:vcl290.bpl
 0001:0000f7a0       _ZN3Vcl8Controls11TWinControl9SetBoundsEiiii 00000001400107a0     vcl:vcl290.bpl
 0001:0000f7b0       _ZN3Vcl8Controls11TWinControl6UpdateEv 00000001400107b0     vcl:vcl290.bpl
 0001:0000f7c0       _ZN3Vcl8Controls8TControl16GetSystemMetricsEi 00000001400107c0     vcl:vcl290.bpl
 0001:0000f7d0       _ZN3Vcl8Controls8TControl12GetStyleNameEv 00000001400107d0     vcl:vcl290.bpl
 0001:0000f7e0       _ZN3Vcl8Controls11TWinControl21CanUseDoubleBufferingEv 00000001400107e0     vcl:vcl290.bpl
 0001:0000f7f0       _ZN3Vcl8Controls11TWinControl17GetDoubleBufferedEv 00000001400107f0     vcl:vcl290.bpl
 0001:0000f800       _ZN3Vcl5Forms11TCustomForm16AdjustClientRectERN6System5Types5TRectE 0000000140010800     vcl:vcl290.bpl
 0001:0000f810       _ZN3Vcl5Forms11TCustomForm13AlignControlsEPNS_8Controls8TControlERN6System5Types5TRectE 0000000140010810     vcl:vcl290.bpl
 0001:0000f820       _ZN3Vcl8Controls11TWinControl12CreateHandleEv 0000000140010820     vcl:vcl290.bpl
 0001:0000f830       _ZN3Vcl5Forms11TCustomForm12CreateParamsERNS_8Controls13TCreateParamsE 0000000140010830     vcl:vcl290.bpl
 0001:0000f840       _ZN3Vcl5Forms11TCustomForm18CreateWindowHandleERKNS_8Controls13TCreateParamsE 0000000140010840     vcl:vcl290.bpl
 0001:0000f850       _ZN3Vcl5Forms11TCustomForm9CreateWndEv 0000000140010850     vcl:vcl290.bpl
 0001:0000f860       _ZN3Vcl8Controls11TWinControl23CustomAlignInsertBeforeEPNS0_8TControlES3_ 0000000140010860     vcl:vcl290.bpl
 0001:0000f870       _ZN3Vcl8Controls11TWinControl19CustomAlignPositionEPNS0_8TControlERiS4_S4_S4_RN6System5Types5TRectERKNS0_10TAlignInfoE 0000000140010870     vcl:vcl290.bpl
 0001:0000f880       _ZN3Vcl5Forms11TCustomForm13DestroyHandleEv 0000000140010880     vcl:vcl290.bpl
 0001:0000f890       _ZN3Vcl5Forms11TCustomForm19DestroyWindowHandleEv 0000000140010890     vcl:vcl290.bpl
 0001:0000f8a0       _ZN3Vcl8Controls11TWinControl10DestroyWndEv 00000001400108a0     vcl:vcl290.bpl
 0001:0000f8b0       _ZN3Vcl8Controls11TWinControl21DockReplaceDockClientEPNS0_8TControlEPS1_S3_NS0_6TAlignES3_ 00000001400108b0     vcl:vcl290.bpl
 0001:0000f8c0       _ZN3Vcl5Forms11TCustomForm20DoWritePixelsPerInchEPN6System7Classes6TFilerE 00000001400108c0     vcl:vcl290.bpl
 0001:0000f8d0       _ZN3Vcl8Controls11TWinControl17GetControlExtentsEv 00000001400108d0     vcl:vcl290.bpl
 0001:0000f8e0       _ZN3Vcl5Forms11TCustomForm11PaintWindowEP5HDC__ 00000001400108e0     vcl:vcl290.bpl
 0001:0000f8f0       _ZN3Vcl8Controls11TWinControl8ResetImeEP6HWND__ 00000001400108f0     vcl:vcl290.bpl
 0001:0000f900       _ZN3Vcl8Controls11TWinControl19ScaleControlsForDpiEi 0000000140010900     vcl:vcl290.bpl
 0001:0000f910       _ZN3Vcl8Controls11TWinControl16GetPixelsPerInchEv 0000000140010910     vcl:vcl290.bpl
 0001:0000f920       _ZN3Vcl5Forms11TCustomForm16SetPixelsPerInchEi 0000000140010920     vcl:vcl290.bpl
 0001:0000f930       _ZN3Vcl8Controls11TWinControl20IsDPIScalingRequiredEv 0000000140010930     vcl:vcl290.bpl
 0001:0000f940       _ZN3Vcl8Controls11TWinControl6SetImeEP6HWND__ 0000000140010940     vcl:vcl290.bpl
 0001:0000f950       _ZN3Vcl8Controls11TWinControl19SetParentBackgroundEb 0000000140010950     vcl:vcl290.bpl
 0001:0000f960       _ZN3Vcl8Controls11TWinControl23SetParentDoubleBufferedEb 0000000140010960     vcl:vcl290.bpl
 0001:0000f970       _ZN3Vcl8Controls11TWinControl11ShowControlEPNS0_8TControlE 0000000140010970     vcl:vcl290.bpl
 0001:0000f980       _ZN3Vcl8Controls11TWinControl31UpdateControlOriginalParentSizeEPNS0_8TControlERN6System5Types6TPointE 0000000140010980     vcl:vcl290.bpl
 0001:0000f990       _ZN3Vcl8Controls11TWinControl15UpdateTIPStatusEv 0000000140010990     vcl:vcl290.bpl
 0001:0000f9a0       _ZN3Vcl8Controls11TWinControl18InitMessageHandlerENS0_30TWinControlMessageHandlerClassE 00000001400109a0     vcl:vcl290.bpl
 0001:0000f9b0       _ZN3Vcl5Forms11TCustomForm8SetFocusEv 00000001400109b0     vcl:vcl290.bpl
 0001:0000f9c0       _ZN3Vcl8Controls11TWinControl19CanEnumerateControlEPNS0_8TControlE 00000001400109c0     vcl:vcl290.bpl
 0001:0000f9d0       _ZN3Vcl5Forms20TScrollingWinControl17AutoScrollEnabledEv 00000001400109d0     vcl:vcl290.bpl
 0001:0000f9e0       _ZN3Vcl5Forms20TScrollingWinControl16AutoScrollInViewEPNS_8Controls8TControlE 00000001400109e0     vcl:vcl290.bpl
 0001:0000f9f0       _ZN3Vcl5Forms11TCustomForm8ResizingEN6System7Uitypes12TWindowStateE 00000001400109f0     vcl:vcl290.bpl
 0001:0000fa00       _ZN3Vcl5Forms11TCustomForm16CanShowInTaskBarEv 0000000140010a00     vcl:vcl290.bpl
 0001:0000fa10       _ZN3Vcl5Forms11TCustomForm13ClientWndProcERN6Winapi8Messages8TMessageE 0000000140010a10     vcl:vcl290.bpl
 0001:0000fa20       _ZN3Vcl5Forms11TCustomForm8DoCreateEv 0000000140010a20     vcl:vcl290.bpl
 0001:0000fa30       _ZN3Vcl5Forms11TCustomForm9DoDestroyEv 0000000140010a30     vcl:vcl290.bpl
 0001:0000fa40       _ZN3Vcl5Forms11TCustomForm19DoThumbButtonNotifyEt 0000000140010a40     vcl:vcl290.bpl
 0001:0000fa50       _ZN3Vcl5Forms11TCustomForm22DoWindowPreviewRequestEv 0000000140010a50     vcl:vcl290.bpl
 0001:0000fa60       _ZN3Vcl5Forms11TCustomForm21DoThumbPreviewRequestEtt 0000000140010a60     vcl:vcl290.bpl
 0001:0000fa70       _ZN3Vcl5Forms11TCustomForm13UpdateActionsEv 0000000140010a70     vcl:vcl290.bpl
 0001:0000fa80       _ZN3Vcl5Forms11TCustomForm25DoBeforeMonitorDpiChangedEii 0000000140010a80     vcl:vcl290.bpl
 0001:0000fa90       _ZN3Vcl5Forms11TCustomForm24DoAfterMonitorDpiChangedEii 0000000140010a90     vcl:vcl290.bpl
 0001:0000faa0       _ZN3Vcl5Forms11TCustomForm18ScaleForCurrentDPIEb 0000000140010aa0     vcl:vcl290.bpl
 0001:0000fab0       _ZN3Vcl5Forms11TCustomForm10CloseQueryEv 0000000140010ab0     vcl:vcl290.bpl
 0001:0000fac0       _ZN3Vcl5Forms11TCustomForm17SetFocusedControlEPNS_8Controls11TWinControlE 0000000140010ac0     vcl:vcl290.bpl
 0001:0000fad0       _ZN3Vcl5Forms11TCustomForm9ShowModalEv 0000000140010ad0     vcl:vcl290.bpl
 0001:0000fae0       _ZN3Vcl5Forms11TCustomForm12WantChildKeyEPNS_8Controls8TControlERN6Winapi8Messages8TMessageE 0000000140010ae0     vcl:vcl290.bpl
 0001:0000faf0       _ZN6System7Classes11TDataModuleC3EPNS0_10TComponentE 0000000140010af0     rtl:rtl290.bpl
 0001:0000fb00       _ZN6System7Classes11TDataModuleD0Ev 0000000140010b00     rtl:rtl290.bpl
 0001:0000fb10       _ZN6System7Classes11TDataModule17AfterConstructionEv 0000000140010b10     rtl:rtl290.bpl
 0001:0000fb20       _ZN6System7Classes11TDataModule17BeforeDestructionEv 0000000140010b20     rtl:rtl290.bpl
 0001:0000fb30       _ZN6System7TObject14DefaultHandlerEPv 0000000140010b30     rtl:rtl290.bpl
 0001:0000fb40       _ZN6System7Classes11TPersistent8AssignToEPS1_ 0000000140010b40     rtl:rtl290.bpl
 0001:0000fb50       _ZN6System7Classes11TDataModule16DefinePropertiesEPNS0_6TFilerE 0000000140010b50     rtl:rtl290.bpl
 0001:0000fb60       _ZN6System7Classes10TComponent13AsyncScheduleEPNS0_16TBaseAsyncResultE 0000000140010b60     rtl:rtl290.bpl
 0001:0000fb70       _ZN6System7Classes10TComponent6LoadedEv 0000000140010b70     rtl:rtl290.bpl
 0001:0000fb80       _ZN6System7Classes10TComponent12NotificationEPS1_NS0_10TOperationE 0000000140010b80     rtl:rtl290.bpl
 0001:0000fb90       _ZN6System7Classes10TComponent9ReadStateEPNS0_7TReaderE 0000000140010b90     rtl:rtl290.bpl
 0001:0000fba0       _ZN6System7Classes10TComponent7SetNameENS_13UnicodeStringE 0000000140010ba0     rtl:rtl290.bpl
 0001:0000fbb0       _ZN6System7Classes10TComponent14ValidateRenameEPS1_NS_13UnicodeStringES3_ 0000000140010bb0     rtl:rtl290.bpl
 0001:0000fbc0       _ZN6System7Classes10TComponent14QueryInterfaceERK5_GUIDPv 0000000140010bc0     rtl:rtl290.bpl
 0001:0000fbd0       _ZN6System7Classes11TDataModule8DoCreateEv 0000000140010bd0     rtl:rtl290.bpl
 0001:0000fbe0       _ZN6System7Classes11TDataModule9DoDestroyEv 0000000140010be0     rtl:rtl290.bpl
 0001:0000fbf0       _ZN6System7Classes11TDataModuleC3EPNS0_10TComponentEi 0000000140010bf0     rtl:rtl290.bpl
 0001:0000fc00       _ZN6System8Strutils13ReverseStringENS_13UnicodeStringE 0000000140010c00     rtl:rtl290.bpl
 0001:0000fc10       _ZN3Web7Httpapp10TWebModuleC3EPN6System7Classes10TComponentE 0000000140010c10     inet:inet290.bpl
 0001:0000fc20       _ZN3Web6Webreq14FreeWebModulesEv 0000000140010c20     inet:inet290.bpl
 0001:0000fc30       _ZN3Web7Httpapp20TCustomWebDispatcherD0Ev 0000000140010c30     inet:inet290.bpl
 0001:0000fc40       _ZN3Web7Httpapp20TCustomWebDispatcher12NotificationEPN6System7Classes10TComponentENS3_10TOperationE 0000000140010c40     inet:inet290.bpl
 0001:0000fc50       free                       0000000140010c50     libucrt:api-ms-win-crt-heap-l1-1-0.dll
 0001:0000fc60       malloc                     0000000140010c60     libucrt:api-ms-win-crt-heap-l1-1-0.dll
 0001:0000fc70       __C_specific_handler       0000000140010c70     libucrt:api-ms-win-crt-private-l1-1-0.dll
 0001:0000fc80       memcpy                     0000000140010c80     libucrt:api-ms-win-crt-private-l1-1-0.dll
 0001:0000fc90       _cexit                     0000000140010c90     libucrt:api-ms-win-crt-runtime-l1-1-0.dll
 0001:0000fca0       _initterm                  0000000140010ca0     libucrt:api-ms-win-crt-runtime-l1-1-0.dll
 0001:0000fcb0       _set_invalid_parameter_handler 0000000140010cb0     libucrt:api-ms-win-crt-runtime-l1-1-0.dll
 0001:0000fcc0       exit                       0000000140010cc0     libucrt:api-ms-win-crt-runtime-l1-1-0.dll
 0001:0000fcd0       __p__commode               0000000140010cd0     libucrt:api-ms-win-crt-stdio-l1-1-0.dll
 0001:0000fce0       __p__fmode                 0000000140010ce0     libucrt:api-ms-win-crt-stdio-l1-1-0.dll
 0001:0000fcf0       strlen                     0000000140010cf0     libucrt:api-ms-win-crt-string-l1-1-0.dll
 0001:0000fd00       _ZSt9terminatev            0000000140010d00     libc++.dll:libc++.dll
 0001:0000fd10       __cxa_begin_catch          0000000140010d10     libc++.dll:libc++.dll
 0001:0000fd20       __cxa_end_catch            0000000140010d20     libc++.dll:libc++.dll
 0001:0000fd30       __gxx_personality_seh0     0000000140010d30     libc++.dll:libc++.dll
 0001:0000fd40       _Unwind_Resume             0000000140010d40     libunwind.dll:libunwind.dll
 0001:0000fd50       FreeLibrary                0000000140010d50     import64:KERNEL32.dll
 0001:0000fd60       GetCommandLineW            0000000140010d60     import64:KERNEL32.dll
 0001:0000fd70       GetLastError               0000000140010d70     import64:KERNEL32.dll
 0001:0000fd80       GetModuleHandleA           0000000140010d80     import64:KERNEL32.dll
 0001:0000fd90       GetModuleHandleW           0000000140010d90     import64:KERNEL32.dll
 0001:0000fda0       GetProcAddress             0000000140010da0     import64:KERNEL32.dll
 0001:0000fdb0       LoadLibraryA               0000000140010db0     import64:KERNEL32.dll
 0001:0000fdc0       LocalAlloc                 0000000140010dc0     import64:KERNEL32.dll
 0001:0000fdd0       LocalFree                  0000000140010dd0     import64:KERNEL32.dll
 0001:0000fde0       RaiseException             0000000140010de0     import64:KERNEL32.dll
 0001:0000fdf0       SetUnhandledExceptionFilter 0000000140010df0     import64:KERNEL32.dll
 0001:0000fe00       Sleep                      0000000140010e00     import64:KERNEL32.dll
 0001:0000fe10       TlsAlloc                   0000000140010e10     import64:KERNEL32.dll
 0001:0000fe20       TlsFree                    0000000140010e20     import64:KERNEL32.dll
 0001:0000fe30       TlsGetValue                0000000140010e30     import64:KERNEL32.dll
 0001:0000fe40       TlsSetValue                0000000140010e40     import64:KERNEL32.dll
 0001:0000fe50       ShellExecuteW              0000000140010e50     import64:SHELL32.dll
 0001:0000fe60       _set_app_type              0000000140010e60     libucrt:api-ms-win-crt-runtime-l1-1-0.dll
 0001:0000fe60       _set_app_type              0000000140010e60     libucrt:api-ms-win-crt-runtime-l1-1-0.dll
 0001:0000fe70       _initialize_narrow_environment 0000000140010e70     libucrt:api-ms-win-crt-runtime-l1-1-0.dll
 0001:0000fe80       _configure_narrow_argv     0000000140010e80     libucrt:api-ms-win-crt-runtime-l1-1-0.dll
 0001:0000fe90       __p___argc                 0000000140010e90     libucrt:api-ms-win-crt-runtime-l1-1-0.dll
 0001:0000fea0       __p___argv                 0000000140010ea0     libucrt:api-ms-win-crt-runtime-l1-1-0.dll
 0001:0000feb0       __p__environ               0000000140010eb0     libucrt:api-ms-win-crt-environment-l1-1-0.dll
 0001:0000fec0       _set_new_mode              0000000140010ec0     libucrt:api-ms-win-crt-heap-l1-1-0.dll
 0001:0000fed0       _initialize_wide_environment 0000000140010ed0     libucrt:api-ms-win-crt-runtime-l1-1-0.dll
 0001:0000fee0       _configure_wide_argv       0000000140010ee0     libucrt:api-ms-win-crt-runtime-l1-1-0.dll
 0001:0000fef0       __p___wargv                0000000140010ef0     libucrt:api-ms-win-crt-runtime-l1-1-0.dll
 0001:0000ff00       __p__wenviron              0000000140010f00     libucrt:api-ms-win-crt-environment-l1-1-0.dll
 0001:0000ff10       _crt_atexit                0000000140010f10     libucrt:api-ms-win-crt-runtime-l1-1-0.dll
 0001:0000ff20       _crt_at_quick_exit         0000000140010f20     libucrt:api-ms-win-crt-runtime-l1-1-0.dll
 0001:0000ff30       __acrt_iob_func            0000000140010f30     libucrt:api-ms-win-crt-stdio-l1-1-0.dll
 0001:0000ff40       _exit                      0000000140010f40     libucrt:api-ms-win-crt-runtime-l1-1-0.dll
 0001:0000ff50       __tzname                   0000000140010f50     libucrt:api-ms-win-crt-time-l1-1-0.dll
 0001:0000ff60       __timezone                 0000000140010f60     libucrt:api-ms-win-crt-time-l1-1-0.dll
 0001:0000ff70       __daylight                 0000000140010f70     libucrt:api-ms-win-crt-time-l1-1-0.dll
 0001:0000ff80       __stdio_common_vfwprintf   0000000140010f80     libucrt:api-ms-win-crt-stdio-l1-1-0.dll
 0001:0000ff90       __p__acmdln                0000000140010f90     libucrt:api-ms-win-crt-runtime-l1-1-0.dll
 0001:0000ffa0       _ismbblead                 0000000140010fa0     libucrt:api-ms-win-crt-multibyte-l1-1-0.dll
 0001:0000ffb0       memset                     0000000140010fb0     libucrt:api-ms-win-crt-string-l1-1-0.dll
 0001:0000ffc0       GetStartupInfoA            0000000140010fc0     import64:KERNEL32.dll
 0001:0000ffd0       VirtualProtect             0000000140010fd0     import64:KERNEL32.dll
 0001:0000ffe0       abort                      0000000140010fe0     libucrt:api-ms-win-crt-runtime-l1-1-0.dll
 0001:0000fff0       VirtualQuery               0000000140010ff0     import64:KERNEL32.dll
 0001:00010000       __setusermatherr           0000000140011000     libucrt:api-ms-win-crt-math-l1-1-0.dll
 0001:00010010       signal                     0000000140011010     libucrt:api-ms-win-crt-runtime-l1-1-0.dll
 0001:00010020       __cxa_throw                0000000140011020     libc++.dll:libc++.dll
 0001:00010030       _ZN6System8Syncobjs12TInterlocked9IncrementERi 0000000140011030     rtl:rtl290.bpl
 0001:00010040       _ZN6System8Sysutils9ExceptionD0Ev 0000000140011040     rtl:rtl290.bpl
 0001:00010050       __cxa_guard_acquire        0000000140011050     libc++.dll:libc++.dll
 0001:00010060       __cxa_guard_release        0000000140011060     libc++.dll:libc++.dll
 0001:00010070       _ZN6System8Sysutils10FloatToStrEe 0000000140011070     rtl:rtl290.bpl
 0001:00010080       _ZN6System8Syncobjs12TInterlocked8ExchangeERPvS2_ 0000000140011080     rtl:rtl290.bpl
 0001:00010090       CompareStringW             0000000140011090     import64:KERNEL32.dll
 0001:000100a0       _ZN6System8Sysutils7LoadStrEy 00000001400110a0     rtl:rtl290.bpl
 0001:000100b0       FindResourceA              00000001400110b0     import64:KERNEL32.dll
 0001:000100c0       LoadResource               00000001400110c0     import64:KERNEL32.dll
 0001:000100d0       LockResource               00000001400110d0     import64:KERNEL32.dll
 0001:000100e0       FreeResource               00000001400110e0     import64:KERNEL32.dll
 0001:000100f0       _ZN6System8Sysutils10FmtLoadStrEyPKNS_7TVarRecEx 00000001400110f0     rtl:rtl290.bpl
 0001:00010100       _ZN6System8Sysutils6FormatENS_13UnicodeStringEPKNS_7TVarRecEx 0000000140011100     rtl:rtl290.bpl
 0001:00010110       _ZN6System8Sysutils11FormatFloatENS_13UnicodeStringEe 0000000140011110     rtl:rtl290.bpl
 0001:00010120       __stdio_common_vswprintf   0000000140011120     libucrt:api-ms-win-crt-stdio-l1-1-0.dll
 0001:00010130       _ZN6System8Sysutils11FloatToStrFEeNS0_12TFloatFormatEii 0000000140011130     rtl:rtl290.bpl
 0001:00010140       _ZN6System8Sysutils8IntToHexEii 0000000140011140     rtl:rtl290.bpl
 0001:00010150       _ZN6System8Sysutils9CurrToStrENS_8CurrencyE 0000000140011150     rtl:rtl290.bpl
 0001:00010160       _ZN6System8Sysutils10CurrToStrFENS_8CurrencyENS0_12TFloatFormatEi 0000000140011160     rtl:rtl290.bpl
 0001:00010170       _ZN6System12UniqueStringERNS_13UnicodeStringE 0000000140011170     rtl:rtl290.bpl
 0001:00010180       _ZN6System8Sysutils13AnsiLowerCaseENS_13UnicodeStringE 0000000140011180     rtl:rtl290.bpl
 0001:00010190       _ZN6System8Sysutils13AnsiUpperCaseENS_13UnicodeStringE 0000000140011190     rtl:rtl290.bpl
 0001:000101a0       _ZN6System8Sysutils4TrimENS_13UnicodeStringE 00000001400111a0     rtl:rtl290.bpl
 0001:000101b0       _ZN6System8Sysutils8TrimLeftENS_13UnicodeStringE 00000001400111b0     rtl:rtl290.bpl
 0001:000101c0       _ZN6System8Sysutils9TrimRightENS_13UnicodeStringE 00000001400111c0     rtl:rtl290.bpl
 0001:000101d0       _ZN6System8Sysutils11StrToIntDefENS_13UnicodeStringEi 00000001400111d0     rtl:rtl290.bpl
 0001:000101e0       _ZN6System8Sysutils10StrToFloatENS_13UnicodeStringE 00000001400111e0     rtl:rtl290.bpl
 0001:000101f0       _ZN6System8Sysutils11IsDelimiterENS_13UnicodeStringES1_i 00000001400111f0     rtl:rtl290.bpl
 0001:00010200       _ZN6System8Sysutils15IsPathDelimiterENS_13UnicodeStringEi 0000000140011200     rtl:rtl290.bpl
 0001:00010210       _ZN6System8Sysutils13LastDelimiterENS_13UnicodeStringES1_ 0000000140011210     rtl:rtl290.bpl
 0001:00010220       _ZN6System8Sysutils8ByteTypeENS_13UnicodeStringEi 0000000140011220     rtl:rtl290.bpl
 0001:00010230       _ZN6System8Sysutils7BytesOfENS_13UnicodeStringE 0000000140011230     rtl:rtl290.bpl
 0001:00010240       _ZN6System8Sysutils12AnsiLastCharENS_13UnicodeStringE 0000000140011240     rtl:rtl290.bpl
 0001:00010250       _ZN6System8Sysutils9BoolToStrEbb 0000000140011250     rtl:rtl290.bpl
 0001:00010260       _ZN6System12StringOfCharEci 0000000140011260     rtl:rtl290.bpl
 0001:00010270       _ZN6System8Sysutils8IntToStrEi 0000000140011270     rtl:rtl290.bpl
 0001:00010280       _ZN6System8Sysutils9UIntToStrEj 0000000140011280     rtl:rtl290.bpl
 0001:00010290       _ZN6System8Sysutils8IntToStrEx 0000000140011290     rtl:rtl290.bpl
 0001:000102a0       _ZN6System8Sysutils9UIntToStrEy 00000001400112a0     rtl:rtl290.bpl
 0001:000102b0       _ZN6System12StringOfCharEwi 00000001400112b0     rtl:rtl290.bpl
 0001:000102c0       _ZN6System8Sysutils10FloatToStrEeRKNS0_15TFormatSettingsE 00000001400112c0     rtl:rtl290.bpl
 0001:000102d0       _ZN6System8Sysutils12TryStrToBoolENS_13UnicodeStringERb 00000001400112d0     rtl:rtl290.bpl
 0001:000102e0       _ZN6System8Sysutils13TryStrToFloatENS_13UnicodeStringERe 00000001400112e0     rtl:rtl290.bpl
 0001:000102f0       _ZN6System8Sysutils13TryStrToFloatENS_13UnicodeStringEReRKNS0_15TFormatSettingsE 00000001400112f0     rtl:rtl290.bpl
 0001:00010300       _ZN6System8Sysutils11TryStrToIntENS_13UnicodeStringERi 0000000140011300     rtl:rtl290.bpl
 0001:00010310       _ZN6System8Sysutils13TryStrToInt64ENS_13UnicodeStringERx 0000000140011310     rtl:rtl290.bpl
 0001:00010320       _ZN6System8Sysutils12TryStrToUIntENS_13UnicodeStringERj 0000000140011320     rtl:rtl290.bpl
 0001:00010330       _ZN6System8Sysutils14TryStrToUInt64ENS_13UnicodeStringERy 0000000140011330     rtl:rtl290.bpl
 0001:00010340       _ZN6System8Sysutils9ExceptionC3ENS_13UnicodeStringE 0000000140011340     rtl:rtl290.bpl
 0001:00010350       __stdio_common_vfprintf    0000000140011350     libucrt:api-ms-win-crt-stdio-l1-1-0.dll
 0001:00010360       calloc                     0000000140011360     libucrt:api-ms-win-crt-heap-l1-1-0.dll
 0001:00010370       EnterCriticalSection       0000000140011370     import64:KERNEL32.dll
 0001:00010380       LeaveCriticalSection       0000000140011380     import64:KERNEL32.dll
 0001:00010390       InitializeCriticalSection  0000000140011390     import64:KERNEL32.dll
 0001:000103a0       DeleteCriticalSection      00000001400113a0     import64:KERNEL32.dll
 0001:000103b0       strncmp                    00000001400113b0     libucrt:api-ms-win-crt-string-l1-1-0.dll
 0001:000103c0       _ZN6System13LoadResStringEPNS_13TResStringRecE 00000001400113c0     rtl:rtl290.bpl
 0001:000103d0       _ZN6System16_CheckAutoResultEl 00000001400113d0     rtl:rtl290.bpl
 0001:000103e0       _ZN6System7TObject12InheritsFromEPNS_10TMetaClassE 00000001400113e0     rtl:rtl290.bpl
 0001:000103f0       _assert                    00000001400113f0     libucrt:api-ms-win-crt-runtime-l1-1-0.dll
 0001:00010400       _ZNSt3__15mutex4lockEv     0000000140011400     libc++.dll:libc++.dll
 0001:00010410       _ZN6System7Typinfo11GetTypeNameEPNS0_9TTypeInfoE 0000000140011410     rtl:rtl290.bpl
 0001:00010420       _ZN6System7Typinfo11GetTypeDataEPNS0_9TTypeInfoE 0000000140011420     rtl:rtl290.bpl
 0001:00010430       _ZN6System7Typinfo9TTypeData11UnitNameFldEv 0000000140011430     rtl:rtl290.bpl
 0001:00010440       _ZN6System7Typinfo22TTypeInfoFieldAccessor8ToStringEv 0000000140011440     rtl:rtl290.bpl
 0001:00010450       _Znwy                      0000000140011450     libc++.dll:libc++.dll
 0001:00010460       _ZNSt3__15mutex6unlockEv   0000000140011460     libc++.dll:libc++.dll
 0001:00010470       _ZdlPv                     0000000140011470     libc++.dll:libc++.dll
 0001:00010480       _ZN6System7TObject9ClassInfoEv 0000000140011480     rtl:rtl290.bpl
 0001:00010490       ceilf                      0000000140011490     libucrt:api-ms-win-crt-math-l1-1-0.dll
 0001:000104a0       _ZNSt3__112__next_primeEy  00000001400114a0     libc++.dll:libc++.dll
 0001:000104b0       __cxa_allocate_exception   00000001400114b0     libc++.dll:libc++.dll
 0001:000104c0       _ZNSt20bad_array_new_lengthC1Ev 00000001400114c0     libc++.dll:libc++.dll
 0001:000104d0       _ZNSt20bad_array_new_lengthD1Ev 00000001400114d0     libc++.dll:libc++.dll
 0001:000104e0       _ZN6System13_UStrFromLStrERNS_13UnicodeStringENS_11AnsiStringTILt0EEE 00000001400114e0     rtl:rtl290.bpl
 0001:000104f0       _ZN6System14_UStrFromPCharERNS_13UnicodeStringEPc 00000001400114f0     rtl:rtl290.bpl
 0001:00010500       _ZN6System14_LStrFromPCharERNS_11AnsiStringTILt0EEEPct 0000000140011500     rtl:rtl290.bpl
 0001:00010510       _ZN6System8_LStrClrEPv     0000000140011510     rtl:rtl290.bpl
 0001:00010520       _ZN6System19UTF8ToUnicodeStringEPKc 0000000140011520     rtl:rtl290.bpl
 0001:00010530       _ZN6System15_UStrFromPWCharERNS_13UnicodeStringEPw 0000000140011530     rtl:rtl290.bpl
 0001:00010540       _ZN6System8_UStrCatERNS_13UnicodeStringES0_ 0000000140011540     rtl:rtl290.bpl
 0001:00010550       _ZN6System9_UStrCat3ERNS_13UnicodeStringES0_S0_ 0000000140011550     rtl:rtl290.bpl
 0001:00010560       _ZN6System11_UStrDeleteERNS_13UnicodeStringEii 0000000140011560     rtl:rtl290.bpl
 0001:00010570       _ZN6System14_UStrSetLengthERNS_13UnicodeStringEi 0000000140011570     rtl:rtl290.bpl
 0001:00010580       _ZN6System8_UStrPosEPwS0_i 0000000140011580     rtl:rtl290.bpl
 0001:00010590       _ZN6System9_UStrCopyENS_13UnicodeStringEii 0000000140011590     rtl:rtl290.bpl
 0001:000105a0       _ZN6System11_UStrInsertENS_13UnicodeStringERS0_i 00000001400115a0     rtl:rtl290.bpl
 0001:000105b0       _ZN6System8_UStrAsgERNS_13UnicodeStringES0_ 00000001400115b0     rtl:rtl290.bpl
 0001:000105c0       _ZN6System8_UStrClrEPv     00000001400115c0     rtl:rtl290.bpl
 0001:000105d0       _ZN6System10_UStrEqualENS_13UnicodeStringES0_ 00000001400115d0     rtl:rtl290.bpl
 0001:000105e0       _ZN6System8_UStrCmpENS_13UnicodeStringES0_ 00000001400115e0     rtl:rtl290.bpl
 0001:000105f0       _ZN6System8_LStrCatERNS_11AnsiStringTILt0EEES1_ 00000001400115f0     rtl:rtl290.bpl
 0001:00010600       _ZN6System9_LStrCat3ERNS_11AnsiStringTILt0EEES1_S1_ 0000000140011600     rtl:rtl290.bpl
 0001:00010610       _ZN6System11_LStrDeleteERNS_11AnsiStringTILt0EEEii 0000000140011610     rtl:rtl290.bpl
 0001:00010620       _ZN6System14_LStrSetLengthERNS_11AnsiStringTILt0EEEit 0000000140011620     rtl:rtl290.bpl
 0001:00010630       _ZN6System8_LStrPosEPcS0_i 0000000140011630     rtl:rtl290.bpl
 0001:00010640       _ZN6System9_LStrCopyENS_11AnsiStringTILt0EEEii 0000000140011640     rtl:rtl290.bpl
 0001:00010650       _ZN6System11_LStrInsertENS_11AnsiStringTILt0EEERS1_i 0000000140011650     rtl:rtl290.bpl
 0001:00010660       _ZN6System10_LStrEqualENS_11AnsiStringTILt0EEES1_ 0000000140011660     rtl:rtl290.bpl
 0001:00010670       _ZN6System8_LStrCmpENS_11AnsiStringTILt0EEES1_ 0000000140011670     rtl:rtl290.bpl
 0001:00010680       _ZN6System8_LStrAsgERNS_11AnsiStringTILt0EEES1_ 0000000140011680     rtl:rtl290.bpl
 0001:00010690       _ZN6System8_WStrAsgERNS_10WideStringES0_ 0000000140011690     rtl:rtl290.bpl
 0001:000106a0       _ZN6System8_WStrClrEPv     00000001400116a0     rtl:rtl290.bpl
 0001:000106b0       _ZN6System13_WStrFromLStrERNS_10WideStringENS_11AnsiStringTILt0EEE 00000001400116b0     rtl:rtl290.bpl
 0001:000106c0       _ZN6System13_WStrFromUStrERNS_10WideStringENS_13UnicodeStringE 00000001400116c0     rtl:rtl290.bpl
 0001:000106d0       _ZN6System14_WStrFromPCharERNS_10WideStringEPc 00000001400116d0     rtl:rtl290.bpl
 0001:000106e0       _ZN6System10_WStrEqualENS_10WideStringES0_ 00000001400116e0     rtl:rtl290.bpl
 0001:000106f0       _ZN6System8_WStrCmpENS_10WideStringES0_ 00000001400116f0     rtl:rtl290.bpl
 0001:00010700       _ZN6System9_WStrCat3ERNS_10WideStringES0_S0_ 0000000140011700     rtl:rtl290.bpl
 0001:00010710       _ZN6System8_WStrPosEPwS0_i 0000000140011710     rtl:rtl290.bpl
 0001:00010720       _ZN6System14_WStrSetLengthERNS_10WideStringEi 0000000140011720     rtl:rtl290.bpl
 0001:00010730       _ZN6System11_WStrDeleteERNS_10WideStringEii 0000000140011730     rtl:rtl290.bpl
 0001:00010740       _ZN6System11_WStrInsertENS_10WideStringERS0_i 0000000140011740     rtl:rtl290.bpl
 0001:00010750       _ZN6System9_WStrCopyENS_10WideStringEii 0000000140011750     rtl:rtl290.bpl
 0001:00010760       _ZN6System8_WStrCatERNS_10WideStringES0_ 0000000140011760     rtl:rtl290.bpl
 0001:00010770       _ZN6System13_UStrFromWStrERNS_13UnicodeStringENS_10WideStringE 0000000140011770     rtl:rtl290.bpl
 0001:00010780       _ZN6System13_LStrFromWStrERNS_11AnsiStringTILt0EEENS_10WideStringEt 0000000140011780     rtl:rtl290.bpl
 0001:00010790       _ZN6System13_LStrFromUStrERNS_11AnsiStringTILt0EEENS_13UnicodeStringEt 0000000140011790     rtl:rtl290.bpl
 0001:000107a0       _ZN6System18_LStrFromPWCharLenERNS_11AnsiStringTILt0EEEPwit 00000001400117a0     rtl:rtl290.bpl
 0001:000107b0       _ZN6System14_LStrFromWCharERNS_11AnsiStringTILt0EEEwt 00000001400117b0     rtl:rtl290.bpl
 0001:000107c0       _ZN6System11Ansistrings15AnsiCompareTextENS_11AnsiStringTILt0EEES2_ 00000001400117c0     rtl:rtl290.bpl
 0001:000107d0       _ZN6System11Ansistrings6FormatENS_11AnsiStringTILt0EEEPKNS_7TVarRecEx 00000001400117d0     rtl:rtl290.bpl
 0001:000107e0       MultiByteToWideChar        00000001400117e0     import64:KERNEL32.dll
 0001:000107f0       memmove                    00000001400117f0     libucrt:api-ms-win-crt-private-l1-1-0.dll
 0001:00010800       _ZN6System3PosENS_11AnsiStringTILt65535EEES1_i 0000000140011800     rtl:rtl290.bpl
 0001:00010810       _ZN6System11Ansistrings13AnsiLowerCaseENS_11AnsiStringTILt0EEE 0000000140011810     rtl:rtl290.bpl
 0001:00010820       _ZN6System11Ansistrings13AnsiUpperCaseENS_11AnsiStringTILt0EEE 0000000140011820     rtl:rtl290.bpl
 0001:00010830       _ZN6System11Ansistrings4TrimENS_11AnsiStringTILt0EEE 0000000140011830     rtl:rtl290.bpl
 0001:00010840       _ZN6System11Ansistrings8TrimLeftENS_11AnsiStringTILt0EEE 0000000140011840     rtl:rtl290.bpl
 0001:00010850       _ZN6System11Ansistrings9TrimRightENS_11AnsiStringTILt0EEE 0000000140011850     rtl:rtl290.bpl
 0001:00010860       _ZN6System11Ansistrings11IsDelimiterENS_11AnsiStringTILt0EEES2_i 0000000140011860     rtl:rtl290.bpl
 0001:00010870       _ZN6System11Ansistrings7AnsiPosENS_11AnsiStringTILt0EEES2_ 0000000140011870     rtl:rtl290.bpl
 0001:00010880       _ZN6System11Ansistrings15IsPathDelimiterENS_11AnsiStringTILt0EEEi 0000000140011880     rtl:rtl290.bpl
 0001:00010890       _ZN6System11Ansistrings13LastDelimiterENS_11AnsiStringTILt0EEES2_ 0000000140011890     rtl:rtl290.bpl
 0001:000108a0       _ZN6System11Ansistrings8ByteTypeENS_11AnsiStringTILt0EEEi 00000001400118a0     rtl:rtl290.bpl
 0001:000108b0       _ZN6System8Sysutils7BytesOfENS_11AnsiStringTILt65535EEE 00000001400118b0     rtl:rtl290.bpl
 0001:000108c0       _ZN6System11Ansistrings12AnsiLastCharENS_11AnsiStringTILt0EEE 00000001400118c0     rtl:rtl290.bpl
 0001:000108d0       _strdup                    00000001400118d0     libucrt:api-ms-win-crt-string-l1-1-0.dll
 0001:000108d0       _strdup                    00000001400118d0     libucrt:api-ms-win-crt-string-l1-1-0.dll
 0001:000108e0       __stdio_common_vsprintf    00000001400118e0     libucrt:api-ms-win-crt-stdio-l1-1-0.dll
 0001:000108f0       _ZN6System7Typinfo14initializationEv 00000001400118f0     rtl:rtl290.bpl
 0001:00010900       _ZN14Idsockethandle14initializationEv 0000000140011900     IndyCore:IndyCore290.bpl
 0001:00010910       _ZN15Idtcpconnection14initializationEv 0000000140011910     IndyCore:IndyCore290.bpl
 0001:00010920       _ZN12Idheaderlist13TIdHeaderList8GetValueEN6System13UnicodeStringE 0000000140011920     IndyProtocols:IndyProtocols290.bpl
 0001:00010930       _ZN12Idheaderlist13TIdHeaderList8SetValueEN6System13UnicodeStringES2_ 0000000140011930     IndyProtocols:IndyProtocols290.bpl
 0001:00010940       _ZN12Idheaderlist13TIdHeaderList12AddStdValuesEPN6System7Classes8TStringsE 0000000140011940     IndyProtocols:IndyProtocols290.bpl
 0001:00010950       _ZN12Idheaderlist14initializationEv 0000000140011950     IndyProtocols:IndyProtocols290.bpl
 0001:00010960       _ZN6System5Types14initializationEv 0000000140011960     rtl:rtl290.bpl
 0001:00010970       _ZN6System8Generics8Defaults13BinaryCompareEPKvS3_x 0000000140011970     rtl:rtl290.bpl
 0001:00010980       _ZN6System8Generics8Defaults16_MakeExtInstanceEPNS_7Typinfo9TTypeInfoExPPvxS6_x 0000000140011980     rtl:rtl290.bpl
 0001:00010990       _ZN6System8Generics8Defaults17_LookupVtableInfoENS1_24TDefaultGenericInterfaceEPNS_7Typinfo9TTypeInfoEx 0000000140011990     rtl:rtl290.bpl
 0001:000109a0       _ZN6System8Generics8Defaults14initializationEv 00000001400119a0     rtl:rtl290.bpl
 0001:000109b0       _ZN6System8Generics11Collections11TListHelper17InternalSetCount8Ex 00000001400119b0     rtl:rtl290.bpl
 0001:000109c0       _ZN6System8Generics11Collections11TListHelper19InternalSetCapacityEx 00000001400119c0     rtl:rtl290.bpl
 0001:000109d0       _ZN6System8Generics11Collections23ErrorArgumentOutOfRangeExxPNS_7TObjectE 00000001400119d0     rtl:rtl290.bpl
 0001:000109e0       _ZN6System8Generics11Collections11TListHelper8SetItem8EPKvx 00000001400119e0     rtl:rtl290.bpl
 0001:000109f0       _ZN6System8Generics11Collections11TListHelper17InternalGrowCheckEx 00000001400119f0     rtl:rtl290.bpl
 0001:00010a00       _ZN6System8Generics11Collections11TListHelper17InternalDoDelete8ExNS1_23TCollectionNotificationE 0000000140011a00     rtl:rtl290.bpl
 0001:00010a10       _ZN6System8Generics11Collections11TListHelper12InternalAdd8EPKv 0000000140011a10     rtl:rtl290.bpl
 0001:00010a20       _ZN6System8Generics11Collections11TListHelper15InternalInsert8ExPKv 0000000140011a20     rtl:rtl290.bpl
 0001:00010a30       _ZN6System8Generics11Collections11TListHelper20InternalInsertRange8ExPvx 0000000140011a30     rtl:rtl290.bpl
 0001:00010a40       _ZN6System8Generics11Collections11TListHelper13InternalPack8ENS_15DelphiInterfaceINS2_18TInternalEmptyFuncEEE 0000000140011a40     rtl:rtl290.bpl
 0001:00010a50       _ZN6System8Generics11Collections11TListHelper12DoRemoveFwd8EPKv 0000000140011a50     rtl:rtl290.bpl
 0001:00010a60       _ZN6System8Generics11Collections11TListHelper12DoRemoveRev8EPKv 0000000140011a60     rtl:rtl290.bpl
 0001:00010a70       _ZN6System8Generics11Collections11TListHelper20InternalDeleteRange8Exx 0000000140011a70     rtl:rtl290.bpl
 0001:00010a80       _ZN6System8Generics11Collections11TListHelper17DoExtractItemFwd8EPKvPv 0000000140011a80     rtl:rtl290.bpl
 0001:00010a90       _ZN6System8Generics11Collections11TListHelper17DoExtractItemRev8EPKvPv 0000000140011a90     rtl:rtl290.bpl
 0001:00010aa0       _ZN6System8Generics11Collections11TListHelper17InternalExchange8Exx 0000000140011aa0     rtl:rtl290.bpl
 0001:00010ab0       _ZN6System8Generics11Collections11TListHelper13InternalMove8Exx 0000000140011ab0     rtl:rtl290.bpl
 0001:00010ac0       _ZN6System8Generics11Collections11TListHelper14InternalClear8Ev 0000000140011ac0     rtl:rtl290.bpl
 0001:00010ad0       _ZN6System8Generics11Collections11TListHelper13DoIndexOfFwd8EPKv 0000000140011ad0     rtl:rtl290.bpl
 0001:00010ae0       _ZN6System8Generics11Collections11TListHelper13DoIndexOfRev8EPKv 0000000140011ae0     rtl:rtl290.bpl
 0001:00010af0       _ZN6System8Generics11Collections11TListHelper16InternalReverse8Ev 0000000140011af0     rtl:rtl290.bpl
 0001:00010b00       _ZN6System8Generics11Collections11TListHelper15InternalToArrayERPv 0000000140011b00     rtl:rtl290.bpl
 0001:00010b10       _ZN6System8Generics11Collections23ErrorArgumentOutOfRangeEv 0000000140011b10     rtl:rtl290.bpl
 0001:00010b20       _ZN6System8Generics11Collections6TArray15RangeInt32ErrorEx 0000000140011b20     rtl:rtl290.bpl
 0001:00010b30       _ZN6System8Generics11Collections14initializationEv 0000000140011b30     rtl:rtl290.bpl
 0001:00010b40       _ZN6System11Netencoding12TNetEncoding14GetURLEncodingEv 0000000140011b40     rtl:rtl290.bpl
 0001:00010b50       _ZN6System11Netencoding12TNetEncoding6EncodeENS_13UnicodeStringE 0000000140011b50     rtl:rtl290.bpl
 0001:00010b60       _ZN6System11Netencoding14initializationEv 0000000140011b60     rtl:rtl290.bpl
 0001:00010b70       _ZN6System4Math14initializationEv 0000000140011b70     rtl:rtl290.bpl
 0001:00010b80       _ZN10Idcharsets14initializationEv 0000000140011b80     IndyProtocols:IndyProtocols290.bpl
 0001:00010b90       _ZN8Idstream14initializationEv 0000000140011b90     IndySystem:IndySystem290.bpl
 0001:00010ba0       _ZN8Idcookie10TIdCookies9GetCookieEi 0000000140011ba0     IndyProtocols:IndyProtocols290.bpl
 0001:00010bb0       _ZN8Idcookie10TIdCookies3AddEv 0000000140011bb0     IndyProtocols:IndyProtocols290.bpl
 0001:00010bc0       _ZN8Idcookie14initializationEv 0000000140011bc0     IndyProtocols:IndyProtocols290.bpl
 0001:00010bd0       _ZN17Idglobalprotocols19ReadStringAsCharsetEPN6System7Classes7TStreamENS0_13UnicodeStringE 0000000140011bd0     IndyProtocols:IndyProtocols290.bpl
 0001:00010be0       _ZN17Idglobalprotocols17CharsetToEncodingEN6System13UnicodeStringE 0000000140011be0     IndyProtocols:IndyProtocols290.bpl
 0001:00010bf0       _ZN17Idglobalprotocols14initializationEv 0000000140011bf0     IndyProtocols:IndyProtocols290.bpl
 0001:00010c00       _ZN8Idglobal5FetchERN6System13UnicodeStringES1_bb 0000000140011c00     IndySystem:IndySystem290.bpl
 0001:00010c10       _ZN8Idglobal20ReadStringFromStreamEPN6System7Classes7TStreamEiNS0_15DelphiInterfaceINS_15IIdTextEncodingEEE 0000000140011c10     IndySystem:IndySystem290.bpl
 0001:00010c20       _ZN8Idglobal18LocalTimeToUTCTimeEN6System9TDateTimeE 0000000140011c20     IndySystem:IndySystem290.bpl
 0001:00010c30       _ZN8Idglobal18UTCTimeToLocalTimeEN6System9TDateTimeE 0000000140011c30     IndySystem:IndySystem290.bpl
 0001:00010c40       _ZN8Idglobal14initializationEv 0000000140011c40     IndySystem:IndySystem290.bpl
 0001:00010c50       _ZN16Idhttpheaderinfo19TIdEntityHeaderInfo16SetContentLengthEx 0000000140011c50     IndyProtocols:IndyProtocols290.bpl
 0001:00010c60       _ZN16Idhttpheaderinfo19TIdEntityHeaderInfo14SetContentTypeEN6System13UnicodeStringE 0000000140011c60     IndyProtocols:IndyProtocols290.bpl
 0001:00010c70       _ZN16Idhttpheaderinfo14initializationEv 0000000140011c70     IndyProtocols:IndyProtocols290.bpl
 0001:00010c80       _ZN8Idbuffer14initializationEv 0000000140011c80     IndyCore:IndyCore290.bpl
 0001:00010c90       _ZN26Idresourcestringsprotocols14initializationEv 0000000140011c90     IndyProtocols:IndyProtocols290.bpl
 0001:00010ca0       _ZN15Idbasecomponent23TIdInitializerComponentC3EPN6System7Classes10TComponentE 0000000140011ca0     IndySystem:IndySystem290.bpl
 0001:00010cb0       _ZN15Idbasecomponent14initializationEv 0000000140011cb0     IndySystem:IndySystem290.bpl
 0001:00010cc0       _ZN11Idcomponent12TIdComponent9BeginWorkENS_9TWorkModeEx 0000000140011cc0     IndySystem:IndySystem290.bpl
 0001:00010cd0       _ZN11Idcomponent12TIdComponent6DoWorkENS_9TWorkModeEx 0000000140011cd0     IndySystem:IndySystem290.bpl
 0001:00010ce0       _ZN11Idcomponent12TIdComponent7EndWorkENS_9TWorkModeE 0000000140011ce0     IndySystem:IndySystem290.bpl
 0001:00010cf0       _ZN11Idcomponent14initializationEv 0000000140011cf0     IndySystem:IndySystem290.bpl
 0001:00010d00       _ZN17Idcustomtcpserver18TIdCustomTCPServer17CheckOkToBeActiveEv 0000000140011d00     IndyCore:IndyCore290.bpl
 0001:00010d10       _ZN17Idcustomtcpserver18TIdCustomTCPServer14ContextCreatedEPN9Idcontext10TIdContextE 0000000140011d10     IndyCore:IndyCore290.bpl
 0001:00010d20       _ZN17Idcustomtcpserver18TIdCustomTCPServer16ContextConnectedEPN9Idcontext10TIdContextE 0000000140011d20     IndyCore:IndyCore290.bpl
 0001:00010d30       _ZN17Idcustomtcpserver18TIdCustomTCPServer19ContextDisconnectedEPN9Idcontext10TIdContextE 0000000140011d30     IndyCore:IndyCore290.bpl
 0001:00010d40       _ZN17Idcustomtcpserver18TIdCustomTCPServer16CreateConnectionEv 0000000140011d40     IndyCore:IndyCore290.bpl
 0001:00010d50       _ZN17Idcustomtcpserver18TIdCustomTCPServer12DoBeforeBindEPN14Idsockethandle15TIdSocketHandleE 0000000140011d50     IndyCore:IndyCore290.bpl
 0001:00010d60       _ZN17Idcustomtcpserver18TIdCustomTCPServer11DoAfterBindEv 0000000140011d60     IndyCore:IndyCore290.bpl
 0001:00010d70       _ZN17Idcustomtcpserver18TIdCustomTCPServer19DoBeforeListenerRunEPN8Idthread9TIdThreadE 0000000140011d70     IndyCore:IndyCore290.bpl
 0001:00010d80       _ZN17Idcustomtcpserver18TIdCustomTCPServer12DoDisconnectEPN9Idcontext10TIdContextE 0000000140011d80     IndyCore:IndyCore290.bpl
 0001:00010d90       _ZN17Idcustomtcpserver18TIdCustomTCPServer11DoExceptionEPN9Idcontext10TIdContextEPN6System8Sysutils9ExceptionE 0000000140011d90     IndyCore:IndyCore290.bpl
 0001:00010da0       _ZN17Idcustomtcpserver18TIdCustomTCPServer17DoListenExceptionEPNS_17TIdListenerThreadEPN6System8Sysutils9ExceptionE 0000000140011da0     IndyCore:IndyCore290.bpl
 0001:00010db0       _ZN17Idcustomtcpserver18TIdCustomTCPServer24DoMaxConnectionsExceededEPN11Idiohandler12TIdIOHandlerE 0000000140011db0     IndyCore:IndyCore290.bpl
 0001:00010dc0       _ZN17Idcustomtcpserver18TIdCustomTCPServer18DoTerminateContextEPN9Idcontext10TIdContextE 0000000140011dc0     IndyCore:IndyCore290.bpl
 0001:00010dd0       _ZN17Idcustomtcpserver18TIdCustomTCPServer6LoadedEv 0000000140011dd0     IndyCore:IndyCore290.bpl
 0001:00010de0       _ZN17Idcustomtcpserver18TIdCustomTCPServer12SendGreetingEPN9Idcontext10TIdContextEPN7Idreply8TIdReplyE 0000000140011de0     IndyCore:IndyCore290.bpl
 0001:00010df0       _ZN17Idcustomtcpserver18TIdCustomTCPServer9SetActiveEb 0000000140011df0     IndyCore:IndyCore290.bpl
 0001:00010e00       _ZN17Idcustomtcpserver18TIdCustomTCPServer11SetBindingsEPN14Idsockethandle16TIdSocketHandlesE 0000000140011e00     IndyCore:IndyCore290.bpl
 0001:00010e10       _ZN17Idcustomtcpserver18TIdCustomTCPServer14SetDefaultPortEt 0000000140011e10     IndyCore:IndyCore290.bpl
 0001:00010e20       _ZN17Idcustomtcpserver18TIdCustomTCPServer12SetInterceptEPN11Idintercept18TIdServerInterceptE 0000000140011e20     IndyCore:IndyCore290.bpl
 0001:00010e30       _ZN17Idcustomtcpserver18TIdCustomTCPServer12SetIOHandlerEPN17Idserveriohandler18TIdServerIOHandlerE 0000000140011e30     IndyCore:IndyCore290.bpl
 0001:00010e40       _ZN17Idcustomtcpserver18TIdCustomTCPServer12SetSchedulerEPN11Idscheduler12TIdSchedulerE 0000000140011e40     IndyCore:IndyCore290.bpl
 0001:00010e50       _ZN17Idcustomtcpserver14initializationEv 0000000140011e50     IndyCore:IndyCore290.bpl
 0001:00010e60       _ZN3Web6Webreq18TWebRequestHandler11FreeModulesEv 0000000140011e60     inet:inet290.bpl
 0001:00010e70       _ZN3Web6Webreq18TWebRequestHandler13HandleRequestEPNS_7Httpapp11TWebRequestEPNS2_12TWebResponseE 0000000140011e70     inet:inet290.bpl
 0001:00010e80       _ZN3Web6Webreq18TWebRequestHandlerC3EPN6System7Classes10TComponentE 0000000140011e80     inet:inet290.bpl
 0001:00010e90       _ZN3Web6Webreq18TWebRequestHandler15HandleExceptionEPN6System7TObjectE 0000000140011e90     inet:inet290.bpl
 0001:00010ea0       _ZN3Web6Webreq18TWebRequestHandlerD0Ev 0000000140011ea0     inet:inet290.bpl
 0001:00010eb0       _ZN3Web6Webreq14initializationEv 0000000140011eb0     inet:inet290.bpl
 0001:00010ec0       _ZN17Idiohandlersocket14initializationEv 0000000140011ec0     IndyCore:IndyCore290.bpl
 0001:00010ed0       _ZN11Idtcpserver14initializationEv 0000000140011ed0     IndyCore:IndyCore290.bpl
 0001:00010ee0       _ZN11Idexception12EIdExceptionC3EN6System13UnicodeStringE 0000000140011ee0     IndySystem:IndySystem290.bpl
 0001:00010ef0       _ZN11Idexception14initializationEv 0000000140011ef0     IndySystem:IndySystem290.bpl
 0001:00010f00       _ZN18Idcustomhttpserver19TIdCustomHTTPServer16CreatePostStreamEPN9Idcontext10TIdContextEPN12Idheaderlist13TIdHeaderListERPN6System7Classes7TStreamE 0000000140011f00     IndyProtocols:IndyProtocols290.bpl
 0001:00010f10       _ZN18Idcustomhttpserver19TIdCustomHTTPServer18DoneWithPostStreamEPN9Idcontext10TIdContextEPNS_18TIdHTTPRequestInfoE 0000000140011f10     IndyProtocols:IndyProtocols290.bpl
 0001:00010f20       _ZN18Idcustomhttpserver19TIdCustomHTTPServer17DoOnCreateSessionEPN9Idcontext10TIdContextERPNS_14TIdHTTPSessionE 0000000140011f20     IndyProtocols:IndyProtocols290.bpl
 0001:00010f30       _ZN18Idcustomhttpserver19TIdCustomHTTPServer16DoInvalidSessionEPN9Idcontext10TIdContextEPNS_18TIdHTTPRequestInfoEPNS_19TIdHTTPResponseInfoERbN6System13UnicodeStringE 0000000140011f30     IndyProtocols:IndyProtocols290.bpl
 0001:00010f40       _ZN18Idcustomhttpserver19TIdCustomHTTPServer14DoCommandErrorEPN9Idcontext10TIdContextEPNS_18TIdHTTPRequestInfoEPNS_19TIdHTTPResponseInfoEPN6System8Sysutils9ExceptionE 0000000140011f40     IndyProtocols:IndyProtocols290.bpl
 0001:00010f50       _ZN18Idcustomhttpserver19TIdCustomHTTPServer9DoConnectEPN9Idcontext10TIdContextE 0000000140011f50     IndyProtocols:IndyProtocols290.bpl
 0001:00010f60       _ZN18Idcustomhttpserver19TIdCustomHTTPServer18DoHeadersAvailableEPN9Idcontext10TIdContextEN6System13UnicodeStringEPN12Idheaderlist13TIdHeaderListE 0000000140011f60     IndyProtocols:IndyProtocols290.bpl
 0001:00010f70       _ZN18Idcustomhttpserver19TIdCustomHTTPServer16DoHeadersBlockedEPN9Idcontext10TIdContextEPN12Idheaderlist13TIdHeaderListERiRN6System13UnicodeStringESA_ 0000000140011f70     IndyProtocols:IndyProtocols290.bpl
 0001:00010f80       _ZN18Idcustomhttpserver19TIdCustomHTTPServer20DoHeaderExpectationsEPN9Idcontext10TIdContextEN6System13UnicodeStringE 0000000140011f80     IndyProtocols:IndyProtocols290.bpl
 0001:00010f90       _ZN18Idcustomhttpserver19TIdCustomHTTPServer14DoQuerySSLPortEt 0000000140011f90     IndyProtocols:IndyProtocols290.bpl
 0001:00010fa0       _ZN18Idcustomhttpserver19TIdCustomHTTPServer12DoSessionEndEPNS_14TIdHTTPSessionE 0000000140011fa0     IndyProtocols:IndyProtocols290.bpl
 0001:00010fb0       _ZN18Idcustomhttpserver19TIdCustomHTTPServer14DoSessionStartEPNS_14TIdHTTPSessionE 0000000140011fb0     IndyProtocols:IndyProtocols290.bpl
 0001:00010fc0       _ZN18Idcustomhttpserver19TIdCustomHTTPServer9DoExecuteEPN9Idcontext10TIdContextE 0000000140011fc0     IndyProtocols:IndyProtocols290.bpl
 0001:00010fd0       _ZN18Idcustomhttpserver19TIdCustomHTTPServer7StartupEv 0000000140011fd0     IndyProtocols:IndyProtocols290.bpl
 0001:00010fe0       _ZN18Idcustomhttpserver19TIdCustomHTTPServer8ShutdownEv 0000000140011fe0     IndyProtocols:IndyProtocols290.bpl
 0001:00010ff0       _ZN18Idcustomhttpserver19TIdCustomHTTPServer12NotificationEPN6System7Classes10TComponentENS2_10TOperationE 0000000140011ff0     IndyProtocols:IndyProtocols290.bpl
 0001:00011000       _ZN18Idcustomhttpserver19TIdCustomHTTPServerD0Ev 0000000140012000     IndyProtocols:IndyProtocols290.bpl
 0001:00011010       _ZN18Idcustomhttpserver19TIdHTTPResponseInfo13SetResponseNoEi 0000000140012010     IndyProtocols:IndyProtocols290.bpl
 0001:00011020       _ZN18Idcustomhttpserver19TIdHTTPResponseInfo11WriteHeaderEv 0000000140012020     IndyProtocols:IndyProtocols290.bpl
 0001:00011030       _ZN18Idcustomhttpserver19TIdHTTPResponseInfo8RedirectEN6System13UnicodeStringE 0000000140012030     IndyProtocols:IndyProtocols290.bpl
 0001:00011040       _ZN18Idcustomhttpserver19TIdHTTPResponseInfo12WriteContentEv 0000000140012040     IndyProtocols:IndyProtocols290.bpl
 0001:00011050       _ZN18Idcustomhttpserver19TIdCustomHTTPServer13InitComponentEv 0000000140012050     IndyProtocols:IndyProtocols290.bpl
 0001:00011060       _ZN18Idcustomhttpserver14initializationEv 0000000140012060     IndyProtocols:IndyProtocols290.bpl
 0001:00011070       _ZN9Idcontext14initializationEv 0000000140012070     IndyCore:IndyCore290.bpl
 0001:00011080       _ZN6System8Sysutils9Exception16RaisingExceptionEPNS_16TExceptionRecordE 0000000140012080     rtl:rtl290.bpl
 0001:00011090       _ZN6System8Sysutils9Exception16GetBaseExceptionEv 0000000140012090     rtl:rtl290.bpl
 0001:000110a0       _ZN6System8Sysutils9Exception8ToStringEv 00000001400120a0     rtl:rtl290.bpl
 0001:000110b0       _ZN6System8Sysutils13StrToInt64DefENS_13UnicodeStringEx 00000001400120b0     rtl:rtl290.bpl
 0001:000110c0       _ZN6System8Sysutils8SupportsEPNS_7TObjectERK5_GUIDPv 00000001400120c0     rtl:rtl290.bpl
 0001:000110d0       _ZN6System8Sysutils16OutOfMemoryErrorEv 00000001400120d0     rtl:rtl290.bpl
 0001:000110e0       _ZN6System8Sysutils9ExceptionC3ENS_13UnicodeStringEPKNS_7TVarRecEx 00000001400120e0     rtl:rtl290.bpl
 0001:000110f0       _ZN6System8Sysutils14initializationEv 00000001400120f0     rtl:rtl290.bpl
 0001:00011100       _ZN3Web7Httpapp11TWebRequest19GetInternalPathInfoEv 0000000140012100     inet:inet290.bpl
 0001:00011110       _ZN3Web7Httpapp11TWebRequest21GetInternalScriptNameEv 0000000140012110     inet:inet290.bpl
 0001:00011120       _ZN3Web7Httpapp11TWebRequest18DoReadTotalContentEv 0000000140012120     inet:inet290.bpl
 0001:00011130       _ZN3Web7Httpapp12TWebResponseD0Ev 0000000140012130     inet:inet290.bpl
 0001:00011140       _ZN3Web7Httpapp20TCustomWebDispatcherC3EPN6System7Classes10TComponentE 0000000140012140     inet:inet290.bpl
 0001:00011150       _ZN3Web7Httpapp11TWebRequestC3Ev 0000000140012150     inet:inet290.bpl
 0001:00011160       _ZN3Web7Httpapp11TWebRequest15GetCookieFieldsEv 0000000140012160     inet:inet290.bpl
 0001:00011170       _ZN3Web7Httpapp11TWebRequestD0Ev 0000000140012170     inet:inet290.bpl
 0001:00011180       _ZN3Web7Httpapp9ParseDateEN6System13UnicodeStringE 0000000140012180     inet:inet290.bpl
 0001:00011190       _ZN3Web7Httpapp12TWebResponseC3EPNS0_11TWebRequestE 0000000140012190     inet:inet290.bpl
 0001:000111a0       _ZN3Web7Httpapp14DefaultCharSetEv 00000001400121a0     inet:inet290.bpl
 0001:000111b0       _ZN3Web7Httpapp12TWebResponse16SetContentStreamEPN6System7Classes7TStreamE 00000001400121b0     inet:inet290.bpl
 0001:000111c0       _ZN3Web7Httpapp17TCookieCollection9GetCookieEi 00000001400121c0     inet:inet290.bpl
 0001:000111d0       _ZN3Web7Httpapp20TCustomWebDispatcher14DispatchActionEPNS0_11TWebRequestEPNS0_12TWebResponseE 00000001400121d0     inet:inet290.bpl
 0001:000111e0       _ZN3Web7Httpapp14initializationEv 00000001400121e0     inet:inet290.bpl
 0001:000111f0       _ZN6System7Classes10TComponent16DefinePropertiesEPNS0_6TFilerE 00000001400121f0     rtl:rtl290.bpl
 0001:00011200       _ZN6System7Classes10TComponent17BeforeDestructionEv 0000000140012200     rtl:rtl290.bpl
 0001:00011210       _ZN6System7Classes13TStringStreamC3ENS_13UnicodeStringE 0000000140012210     rtl:rtl290.bpl
 0001:00011220       _ZN6System7Classes7TStream11GetPositionEv 0000000140012220     rtl:rtl290.bpl
 0001:00011230       _ZN6System7Classes7TStream11SetPositionEx 0000000140012230     rtl:rtl290.bpl
 0001:00011240       _ZN6System7Classes13TStringStream13GetDataStringEv 0000000140012240     rtl:rtl290.bpl
 0001:00011250       _ZN6System7Classes14initializationEv 0000000140012250     rtl:rtl290.bpl
 0001:00011260       _ZN6System7TObject17SafeCallExceptionEPS0_Pv 0000000140012260     rtl:rtl290.bpl
 0001:00011270       _ZN6System7TObject17AfterConstructionEv 0000000140012270     rtl:rtl290.bpl
 0001:00011280       _ZN6System7TObject17BeforeDestructionEv 0000000140012280     rtl:rtl290.bpl
 0001:00011290       _ZN6System7TObject9CPP_ABI_1Ev 0000000140012290     rtl:rtl290.bpl
 0001:000112a0       _ZN6System7TObject9CPP_ABI_2Ev 00000001400122a0     rtl:rtl290.bpl
 0001:000112b0       _ZN6System7TObject9CPP_ABI_3Ev 00000001400122b0     rtl:rtl290.bpl
 0001:000112c0       _ZN6System7TObjectC3Ev     00000001400122c0     rtl:rtl290.bpl
 0001:000112d0       _ZN6System12_ClassCreateEPva 00000001400122d0     rtl:rtl290.bpl
 0001:000112e0       _ZN6System18_AfterConstructionEPNS_7TObjectE 00000001400122e0     rtl:rtl290.bpl
 0001:000112f0       _ZN6System13_ClassDestroyEPNS_7TObjectE 00000001400122f0     rtl:rtl290.bpl
 0001:00011300       _ZN6System11_RaiseAgainEv  0000000140012300     rtl:rtl290.bpl
 0001:00011310       _ZN6System7TObject4FreeEv  0000000140012310     rtl:rtl290.bpl
 0001:00011320       _ZN6System18_BeforeDestructionEPNS_7TObjectEa 0000000140012320     rtl:rtl290.bpl
 0001:00011330       _ZN6System18_DynArraySetLengthERPvS0_x 0000000140012330     rtl:rtl290.bpl
 0001:00011340       _ZN6System9_UStrLAsgERNS_13UnicodeStringES0_ 0000000140012340     rtl:rtl290.bpl
 0001:00011350       _ZN6System10_IntfClearERNS_15DelphiInterfaceINS_10IInterfaceEEE 0000000140012350     rtl:rtl290.bpl
 0001:00011360       _ZN6System4MoveEPKvPvx     0000000140012360     rtl:rtl290.bpl
 0001:00011370       _ZN6System14_DynArrayClearERPvS0_ 0000000140012370     rtl:rtl290.bpl
 0001:00011380       _ZN6System12_RaiseExceptEPNS_7TObjectE 0000000140012380     rtl:rtl290.bpl
 0001:00011390       _ZN6System13_UStrArrayClrEPvi 0000000140012390     rtl:rtl290.bpl
 0001:000113a0       _ZN6System14_AbstractErrorEv 00000001400123a0     rtl:rtl290.bpl
 0001:000113b0       _ZN6System7TObjectD0Ev     00000001400123b0     rtl:rtl290.bpl
 0001:000113c0       _ZN6System8_AsClassEPNS_7TObjectEPNS_10TMetaClassE 00000001400123c0     rtl:rtl290.bpl
 0001:000113d0       _ZN6System12_DynArrayAsgERPvS0_S0_ 00000001400123d0     rtl:rtl290.bpl
 0001:000113e0       _ZN6System9_IntfCopyERNS_15DelphiInterfaceINS_10IInterfaceEEES2_ 00000001400123e0     rtl:rtl290.bpl
 0001:000113f0       _ZN6System14_RaiseAtExceptEPNS_7TObjectEPv 00000001400123f0     rtl:rtl290.bpl
 0001:00011400       _ZN6System8_IsClassEPNS_7TObjectEPNS_10TMetaClassE 0000000140012400     rtl:rtl290.bpl
 0001:00011410       _ZN6System17TInterfacedObject14QueryInterfaceERK5_GUIDPv 0000000140012410     rtl:rtl290.bpl
 0001:00011420       _ZN6System17TInterfacedObject7_AddRefEv 0000000140012420     rtl:rtl290.bpl
 0001:00011430       _ZN6System17TInterfacedObject8_ReleaseEv 0000000140012430     rtl:rtl290.bpl
 0001:00011440       _ZN6System17TInterfacedObject17AfterConstructionEv 0000000140012440     rtl:rtl290.bpl
 0001:00011450       _ZN6System17TInterfacedObject17BeforeDestructionEv 0000000140012450     rtl:rtl290.bpl
 0001:00011460       _ZN6System17TInterfacedObject11NewInstanceEv 0000000140012460     rtl:rtl290.bpl
 0001:00011470       __delphi_init_eh           0000000140012470     libc++.dll:libc++.dll
 0001:00011480       _ZN6System9RaiseListEv     0000000140012480     rtl:rtl290.bpl
 0001:00011490       _ZN6System12SetRaiseListEPv 0000000140012490     rtl:rtl290.bpl
 0001:000114a0       realloc                    00000001400124a0     libucrt:api-ms-win-crt-heap-l1-1-0.dll
 0001:000114b0       _ZN6System18IsMemoryManagerSetEv 00000001400124b0     rtl:rtl290.bpl
 0001:000114c0       _ZN6System16SetMemoryManagerERKNS_16TMemoryManagerExE 00000001400124c0     rtl:rtl290.bpl
 0002:00000000       .refptr._MINGW_INSTALL_DEBUG_MATHERR 0000000140013000     crt2.o
 0002:00000008       .refptr.__dyn_tls_init_callback 0000000140013008     crt2.o
 0002:00000010       .refptr.__globallocalestatus 0000000140013010     crt2.o
 0002:00000018       .refptr.__image_base__     0000000140013018     crt2.o
 0002:00000020       .refptr.__imp___initenv    0000000140013020     crt2.o
 0002:00000028       .refptr.__mingw_app_type   0000000140013028     crt2.o
 0002:00000030       .refptr.__mingw_initltsdrot_force 0000000140013030     crt2.o
 0002:00000038       .refptr.__mingw_initltsdyn_force 0000000140013038     crt2.o
 0002:00000040       .refptr.__mingw_initltssuo_force 0000000140013040     crt2.o
 0002:00000048       .refptr.__mingw_oldexcpt_handler 0000000140013048     crt2.o
 0002:00000050       .refptr.__native_startup_lock 0000000140013050     crt2.o
 0002:00000058       .refptr.__native_startup_state 0000000140013058     crt2.o
 0002:00000060       .refptr.__xc_a             0000000140013060     crt2.o
 0002:00000068       .refptr.__xc_z             0000000140013068     crt2.o
 0002:00000070       .refptr.__xi_a             0000000140013070     crt2.o
 0002:00000078       .refptr.__xi_z             0000000140013078     crt2.o
 0002:00000080       .refptr._commode           0000000140013080     crt2.o
 0002:00000088       .refptr._dowildcard        0000000140013088     crt2.o
 0002:00000090       .refptr._fmode             0000000140013090     crt2.o
 0002:00000098       .refptr._hInstance         0000000140013098     crt2.o
 0002:000000a0       .refptr._newmode           00000001400130a0     crt2.o
 0002:000000ec       _ZTRN7Sysinit15PImageThunkDataE 00000001400130ec     sysinit.o
 0002:00000110       _ZTRN7Sysinit15TImageThunkDataE 0000000140013110     sysinit.o
 0002:000001b8       _ZTRN7Sysinit13ImgDelayDescrE 00000001400131b8     sysinit.o
 0002:000002b8       _ZTRN7Sysinit14PImgDelayDescrE 00000001400132b8     sysinit.o
 0002:000002dc       _ZTRN7Sysinit13DelayLoadProcE 00000001400132dc     sysinit.o
 0002:00000360       _ZTRN7Sysinit14PDelayLoadProcE 0000000140013360     sysinit.o
 0002:00000384       _ZTRN7Sysinit13DelayLoadInfoE 0000000140013384     sysinit.o
 0002:00000478       _ZTRN7Sysinit14PDelayLoadInfoE 0000000140013478     sysinit.o
 0002:0000049c       _ZTRN7Sysinit10PfnDliHookE 000000014001349c     sysinit.o
 0002:000005e8       .refptr.Form2              00000001400135e8     DemoStandalone.o
 0002:000005f0       .refptr.WebModuleClass     00000001400135f0     DemoStandalone.o
 0002:000005f8       .refptr._ZTV6TForm2        00000001400135f8     DemoStandalone.o
 0002:00000600       _ZTV6TForm2                0000000140013600     UFrmMain.o
 0002:00000a70       _ZTX6TForm2                0000000140013a70     UFrmMain.o
 0002:00000aa0       _ZTF6TForm2                0000000140013aa0     UFrmMain.o
 0002:00000bd0       _ZTM6TForm2                0000000140013bd0     UFrmMain.o
 0002:00000dc0       _ZTR6TForm2                0000000140013dc0     UFrmMain.o
 0002:00000df8       .refptr._ZTVN21Idhttpwebbrokerbridge22TIdHTTPWebBrokerBridgeE 0000000140013df8     UFrmMain.o
 0002:00000e00       _ZTV17TServerContainer2    0000000140013e00     UServerContainer.o
 0002:00000f80       _ZTX17TServerContainer2    0000000140013f80     UServerContainer.o
 0002:00000fa0       _ZTF17TServerContainer2    0000000140013fa0     UServerContainer.o
 0002:00001010       _ZTM17TServerContainer2    0000000140014010     UServerContainer.o
 0002:000010a0       _ZTR17TServerContainer2    00000001400140a0     UServerContainer.o
 0002:000010e8       _ZTRN6System7Classes16TPersistentClassE 00000001400140e8     UServerContainer.o
 0002:00001100       _ZTR15TServerMethods2      0000000140014100     UServerContainer.o
 0002:00001148       .refptr._ZTV15TServerMethods2 0000000140014148     UServerContainer.o
 0002:00001150       _ZTV15TServerMethods2      0000000140014150     UServerMethod.o
 0002:000012d0       _ZTM15TServerMethods2      00000001400142d0     UServerMethod.o
 0002:00001480       _ZTV11TWebModule2          0000000140014480     UWebModuleMain.o
 0002:00001650       _ZTX11TWebModule2          0000000140014650     UWebModuleMain.o
 0002:00001660       _ZTF11TWebModule2          0000000140014660     UWebModuleMain.o
 0002:000016b0       _ZTM11TWebModule2          00000001400146b0     UWebModuleMain.o
 0002:000017c0       _ZTR11TWebModule2          00000001400147c0     UWebModuleMain.o
 0002:00001818       .refptr.__imp__tzset       0000000140014818     libucrt:lib64_libucrt_extra_a-ucrtbase_compat.o
 0002:00001820       .refptr.__mingw_module_is_dll 0000000140014820     libucrt:lib64_libucrt_extra_a-ucrtbase_compat.o
 0002:00001830       .refptr.__CTOR_LIST__      0000000140014830     libmingw32:lib64_libmingw32_a-gccmain.o
 0002:00001838       _tls_used                  0000000140014838     libmingw32:lib64_libmingw32_a-tlssup.o
 0002:00001860       __dyn_tls_init_callback    0000000140014860     libmingw32:lib64_libmingw32_a-tlssup.o
 0002:00001868       .refptr._CRT_MT            0000000140014868     libmingw32:lib64_libmingw32_a-tlssup.o
 0002:00001ac8       .refptr.__RUNTIME_PSEUDO_RELOC_LIST_END__ 0000000140014ac8     libmingw32:lib64_libmingw32_a-pseudo-reloc.o
 0002:00001ad0       .refptr.__RUNTIME_PSEUDO_RELOC_LIST__ 0000000140014ad0     libmingw32:lib64_libmingw32_a-pseudo-reloc.o
 0002:00001ad8       .refptr._ZN6System10_init_instE 0000000140014ad8     rtle:ustring.o
 0002:00001ae0       .refptr._ZTRN6System8Sysutils11ERangeErrorE 0000000140014ae0     rtle:ustring.o
 0002:00001ae8       .refptr._ZTVN6System8Sysutils11ERangeErrorE 0000000140014ae8     rtle:ustring.o
 0002:00001af4       _ZN6System10_init_instE    0000000140014af4     rtle:syssupp.o
 0002:00001c41       _ZTSSt20bad_array_new_length 0000000140014c41     rtle:syssupp.o
 0002:00001c5a       _ZTSSt9bad_alloc           0000000140014c5a     rtle:syssupp.o
 0002:00001c67       _ZTSSt9exception           0000000140014c67     rtle:syssupp.o
 0002:00001c78       _ZTISt9exception           0000000140014c78     rtle:syssupp.o
 0002:00001c88       _ZTISt9bad_alloc           0000000140014c88     rtle:syssupp.o
 0002:00001ca0       _ZTISt20bad_array_new_length 0000000140014ca0     rtle:syssupp.o
 0002:00001e88       _ZTVN21Idhttpwebbrokerbridge13EWBBExceptionE 0000000140014e88     IdHTTPWebBrokerBridge.o
 0002:00001f7c       _ZTRN21Idhttpwebbrokerbridge13EWBBExceptionE 0000000140014f7c     IdHTTPWebBrokerBridge.o
 0002:00001fc8       _ZTVN21Idhttpwebbrokerbridge29EWBBInvalidIdxGetDateVariableE 0000000140014fc8     IdHTTPWebBrokerBridge.o
 0002:000020cc       _ZTRN21Idhttpwebbrokerbridge29EWBBInvalidIdxGetDateVariableE 00000001400150cc     IdHTTPWebBrokerBridge.o
 0002:00002128       _ZTVN21Idhttpwebbrokerbridge29EWBBInvalidIdxSetDateVariableE 0000000140015128     IdHTTPWebBrokerBridge.o
 0002:0000222c       _ZTRN21Idhttpwebbrokerbridge29EWBBInvalidIdxSetDateVariableE 000000014001522c     IdHTTPWebBrokerBridge.o
 0002:00002288       _ZTVN21Idhttpwebbrokerbridge28EWBBInvalidIdxGetIntVariableE 0000000140015288     IdHTTPWebBrokerBridge.o
 0002:0000238c       _ZTRN21Idhttpwebbrokerbridge28EWBBInvalidIdxGetIntVariableE 000000014001538c     IdHTTPWebBrokerBridge.o
 0002:000023e8       _ZTVN21Idhttpwebbrokerbridge28EWBBInvalidIdxSetIntVariableE 00000001400153e8     IdHTTPWebBrokerBridge.o
 0002:000024ec       _ZTRN21Idhttpwebbrokerbridge28EWBBInvalidIdxSetIntVariableE 00000001400154ec     IdHTTPWebBrokerBridge.o
 0002:00002548       _ZTVN21Idhttpwebbrokerbridge28EWBBInvalidIdxGetStrVariableE 0000000140015548     IdHTTPWebBrokerBridge.o
 0002:0000264c       _ZTRN21Idhttpwebbrokerbridge28EWBBInvalidIdxGetStrVariableE 000000014001564c     IdHTTPWebBrokerBridge.o
 0002:000026a8       _ZTVN21Idhttpwebbrokerbridge26EWBBInvalidIdxSetStringVarE 00000001400156a8     IdHTTPWebBrokerBridge.o
 0002:000027ac       _ZTRN21Idhttpwebbrokerbridge26EWBBInvalidIdxSetStringVarE 00000001400157ac     IdHTTPWebBrokerBridge.o
 0002:00002800       _ZTVN21Idhttpwebbrokerbridge20EWBBInvalidStringVarE 0000000140015800     IdHTTPWebBrokerBridge.o
 0002:000028fc       _ZTRN21Idhttpwebbrokerbridge20EWBBInvalidStringVarE 00000001400158fc     IdHTTPWebBrokerBridge.o
 0002:00002950       _ZTVN21Idhttpwebbrokerbridge17TIdHTTPAppRequestE 0000000140015950     IdHTTPWebBrokerBridge.o
 0002:00002efc       _ZTRN21Idhttpwebbrokerbridge17TIdHTTPAppRequestE 0000000140015efc     IdHTTPWebBrokerBridge.o
 0002:00002f48       _ZTVN21Idhttpwebbrokerbridge18TIdHTTPAppResponseE 0000000140015f48     IdHTTPWebBrokerBridge.o
 0002:00003350       _ZTRN21Idhttpwebbrokerbridge18TIdHTTPAppResponseE 0000000140016350     IdHTTPWebBrokerBridge.o
 0002:000033a0       _ZTVN21Idhttpwebbrokerbridge22TIdHTTPWebBrokerBridgeE 00000001400163a0     IdHTTPWebBrokerBridge.o
 0002:000036e4       _ZTRN21Idhttpwebbrokerbridge22TIdHTTPWebBrokerBridgeE 00000001400166e4     IdHTTPWebBrokerBridge.o
 0002:00003734       _ZTRN6System12DynamicArrayIPNS_7Classes15TCollectionItemEEE 0000000140016734     IdHTTPWebBrokerBridge.o
 0002:00003790       _ZTVN6System8Generics11Collections14TEnumerator__1IPNS_7Classes15TCollectionItemEEE 0000000140016790     IdHTTPWebBrokerBridge.o
 0002:000038dc       _ZTRN6System8Generics11Collections14TEnumerator__1IPNS_7Classes15TCollectionItemEEE 00000001400168dc     IdHTTPWebBrokerBridge.o
 0002:00003988       _ZTVN6System8Generics11Collections14TEnumerable__1IPNS_7Classes15TCollectionItemEEE 0000000140016988     IdHTTPWebBrokerBridge.o
 0002:00003b64       _ZTRN6System8Generics11Collections14TEnumerable__1IPNS_7Classes15TCollectionItemEEE 0000000140016b64     IdHTTPWebBrokerBridge.o
 0002:00003bd0       _ZTRN6System15DelphiInterfaceINS_8Generics8Defaults12IComparer__1IPNS_7Classes15TCollectionItemEEEEE 0000000140016bd0     IdHTTPWebBrokerBridge.o
 0002:00003c3c       _ZTRN6System8Generics11Collections25TCollectionNotifyEvent__1IPNS_7Classes15TCollectionItemEEE 0000000140016c3c     IdHTTPWebBrokerBridge.o
 0002:00003d28       _ZTRN6System8Generics11Collections8TList__1IPNS_7Classes15TCollectionItemEE9ParrayofTE 0000000140016d28     IdHTTPWebBrokerBridge.o
 0002:00003d6c       _ZTRN6System15DelphiInterfaceINS_14IEnumerator__1IPNS_7Classes15TCollectionItemEEEEE 0000000140016d6c     IdHTTPWebBrokerBridge.o
 0002:00003dc8       _ZTRN6System15DelphiInterfaceINS_14IEnumerable__1IPNS_7Classes15TCollectionItemEEEEE 0000000140016dc8     IdHTTPWebBrokerBridge.o
 0002:00003e24       _ZTRN6System15DelphiInterfaceINS_8Generics11Collections8TList__1IPNS_7Classes15TCollectionItemEE10TEmptyFuncEEE 0000000140016e24     IdHTTPWebBrokerBridge.o
 0002:00003ea0       _ZTVN6System8Generics11Collections8TList__1IPNS_7Classes15TCollectionItemEE11TEnumeratorE 0000000140016ea0     IdHTTPWebBrokerBridge.o
 0002:00004078       _ZTRN6System8Generics11Collections8TList__1IPNS_7Classes15TCollectionItemEE11TEnumeratorE 0000000140017078     IdHTTPWebBrokerBridge.o
 0002:00004128       _ZTVN6System8Generics11Collections8TList__1IPNS_7Classes15TCollectionItemEEE 0000000140017128     IdHTTPWebBrokerBridge.o
 0002:000055a0       _ZTRN6System8Generics11Collections8TList__1IPNS_7Classes15TCollectionItemEEE 00000001400185a0     IdHTTPWebBrokerBridge.o
 0002:000057bc       _ZTRN6System12DynamicArrayIhEE 00000001400187bc     IdHTTPWebBrokerBridge.o
 0002:00005804       _ZTRN6System15DelphiInterfaceINS_8Generics8Defaults14TComparison__1IPNS_7Classes15TCollectionItemEEEEE 0000000140018804     IdHTTPWebBrokerBridge.o
 0002:00005878       _ZTVN6System8Generics8Defaults12TComparer__1IPNS_7Classes15TCollectionItemEEE 0000000140018878     IdHTTPWebBrokerBridge.o
 0002:00005ae4       _ZTRN6System8Generics8Defaults12TComparer__1IPNS_7Classes15TCollectionItemEEE 0000000140018ae4     IdHTTPWebBrokerBridge.o
 0002:00005b4c       _ZTRN6System15DelphiInterfaceINS_8Generics11Collections24_TList__1_Pack_1__0_IntfIPNS_7Classes15TCollectionItemEEEEE 0000000140018b4c     IdHTTPWebBrokerBridge.o
 0002:00005bc8       _ZTVN6System8Generics11Collections24@TList__1_Pack_1__ActRecIPNS_7Classes15TCollectionItemEEE 0000000140018bc8     IdHTTPWebBrokerBridge.o
 0002:00005cf0       _ZTRN6System8Generics11Collections24@TList__1_Pack_1__ActRecIPNS_7Classes15TCollectionItemEEE 0000000140018cf0     IdHTTPWebBrokerBridge.o
 0002:00005d68       _ZTRN6System15DelphiInterfaceINS_8Generics11Collections24_TList__1_Pack_0__0_IntfIPNS_7Classes15TCollectionItemEEEEE 0000000140018d68     IdHTTPWebBrokerBridge.o
 0002:00005de8       _ZTVN6System8Generics11Collections24@TList__1_Pack_0__ActRecIPNS_7Classes15TCollectionItemEEE 0000000140018de8     IdHTTPWebBrokerBridge.o
 0002:00005f2c       _ZTRN6System8Generics11Collections24@TList__1_Pack_0__ActRecIPNS_7Classes15TCollectionItemEEE 0000000140018f2c     IdHTTPWebBrokerBridge.o
 0002:00005fa4       _ZTRN6System8Generics8Defaults23TRecEqualityOperator__1IPNS_7Classes15TCollectionItemEEE 0000000140018fa4     IdHTTPWebBrokerBridge.o
 0002:000066d0       .refptr.__EMBT_INIT_LIST_BEGIN__ 00000001400196d0     libmingw32:lib64_libmingw32_a-start_delphi.o
 0002:000066d8       .refptr.__EMBT_INIT_LIST_END__ 00000001400196d8     libmingw32:lib64_libmingw32_a-start_delphi.o
 0002:000066e0       .refptr.__isDLL            00000001400196e0     libmingw32:lib64_libmingw32_a-start_delphi.o
 0002:000066e8       .refptr.__isGUI            00000001400196e8     libmingw32:lib64_libmingw32_a-start_delphi.o
 0002:000066f0       .refptr.__isVCLPackage     00000001400196f0     libmingw32:lib64_libmingw32_a-start_delphi.o
 0002:00006764       _ZTRN6System8Internal7Initcpp15PUnitDescriptorE 0000000140019764     rtl:System.Internal.InitCPP.o
 0002:00006788       _ZTRN6System8Internal7Initcpp16PPUnitDescriptorE 0000000140019788     rtl:System.Internal.InitCPP.o
 0002:000067ac       _ZTRN6System8Internal7Initcpp17PPPUnitDescriptorE 00000001400197ac     rtl:System.Internal.InitCPP.o
 0002:000067d4       _ZTRN6System8Internal7Initcpp13TUnitInitProcE 00000001400197d4     rtl:System.Internal.InitCPP.o
 0002:00006810       _ZTRN6System8Internal7Initcpp13TUnitFiniProcE 0000000140019810     rtl:System.Internal.InitCPP.o
 0002:0000684c       _ZTRN6System8Internal7Initcpp15TUnitDescriptorE 000000014001984c     rtl:System.Internal.InitCPP.o
 0002:000069c0       _ZTRN6System8Internal7Initcpp20PUnitDescriptorBlockE 00000001400199c0     rtl:System.Internal.InitCPP.o
 0002:000069e8       _ZTRN6System8Internal7Initcpp21PPUnitDescriptorBlockE 00000001400199e8     rtl:System.Internal.InitCPP.o
 0002:00006a14       _ZTRN6System8Internal7Initcpp20TUnitDescriptorBlockE 0000000140019a14     rtl:System.Internal.InitCPP.o
 0000:00000000       __RUNTIME_PSEUDO_RELOC_LIST__ 0000000140019a98     <linker-defined>
 0000:00000000       __RUNTIME_PSEUDO_RELOC_LIST_END__ 0000000140019b7c     <linker-defined>
 0002:00006b80       __xc_a                     0000000140019b80     libmingw32:lib64_libmingw32_a-cinitexe.o
 0002:00006b88       __mingw_pcppinit           0000000140019b88     crt2.o
 0002:00006b90       __xc_z                     0000000140019b90     libmingw32:lib64_libmingw32_a-cinitexe.o
 0002:00006ba8       __xi_a                     0000000140019ba8     libmingw32:lib64_libmingw32_a-cinitexe.o
 0002:00006bb0       __mingw_pcinit             0000000140019bb0     crt2.o
 0002:00006bb8       __xi_z                     0000000140019bb8     libmingw32:lib64_libmingw32_a-cinitexe.o
 0002:00006bc0       __xl_a                     0000000140019bc0     libmingw32:lib64_libmingw32_a-tlssup.o
 0002:00006bc8       __xl_c                     0000000140019bc8     libmingw32:lib64_libmingw32_a-tlssup.o
 0002:00006bd0       __xl_d                     0000000140019bd0     libmingw32:lib64_libmingw32_a-tlssup.o
 0002:00006bd8       __xl_z                     0000000140019bd8     libmingw32:lib64_libmingw32_a-tlssup.o
 0000:00000000       __CTOR_LIST__              0000000140019be0     <linker-defined>
 0000:00000000       __DTOR_LIST__              0000000140019c08     <linker-defined>
 0002:000084b0       __imp__ZN6System10ExceptAddrEv 000000014001b4b0     rtl:rtl290.bpl
 0002:000084b8       __imp__ZN6System10_IntfClearERNS_15DelphiInterfaceINS_10IInterfaceEEE 000000014001b4b8     rtl:rtl290.bpl
 0002:000084c0       __imp__ZN6System10_LStrEqualENS_11AnsiStringTILt0EEES1_ 000000014001b4c0     rtl:rtl290.bpl
 0002:000084c8       __imp__ZN6System10_UStrEqualENS_13UnicodeStringES0_ 000000014001b4c8     rtl:rtl290.bpl
 0002:000084d0       __imp__ZN6System10_WStrEqualENS_10WideStringES0_ 000000014001b4d0     rtl:rtl290.bpl
 0002:000084d8       __imp__ZN6System11Ansistrings11IsDelimiterENS_11AnsiStringTILt0EEES2_i 000000014001b4d8     rtl:rtl290.bpl
 0002:000084e0       __imp__ZN6System11Ansistrings12AnsiLastCharENS_11AnsiStringTILt0EEE 000000014001b4e0     rtl:rtl290.bpl
 0002:000084e8       __imp__ZN6System11Ansistrings13AnsiLowerCaseENS_11AnsiStringTILt0EEE 000000014001b4e8     rtl:rtl290.bpl
 0002:000084f0       __imp__ZN6System11Ansistrings13AnsiUpperCaseENS_11AnsiStringTILt0EEE 000000014001b4f0     rtl:rtl290.bpl
 0002:000084f8       __imp__ZN6System11Ansistrings13LastDelimiterENS_11AnsiStringTILt0EEES2_ 000000014001b4f8     rtl:rtl290.bpl
 0002:00008500       __imp__ZN6System11Ansistrings15AnsiCompareTextENS_11AnsiStringTILt0EEES2_ 000000014001b500     rtl:rtl290.bpl
 0002:00008508       __imp__ZN6System11Ansistrings15IsPathDelimiterENS_11AnsiStringTILt0EEEi 000000014001b508     rtl:rtl290.bpl
 0002:00008510       __imp__ZN6System11Ansistrings4TrimENS_11AnsiStringTILt0EEE 000000014001b510     rtl:rtl290.bpl
 0002:00008518       __imp__ZN6System11Ansistrings6FormatENS_11AnsiStringTILt0EEEPKNS_7TVarRecEx 000000014001b518     rtl:rtl290.bpl
 0002:00008520       __imp__ZN6System11Ansistrings7AnsiPosENS_11AnsiStringTILt0EEES2_ 000000014001b520     rtl:rtl290.bpl
 0002:00008528       __imp__ZN6System11Ansistrings8ByteTypeENS_11AnsiStringTILt0EEEi 000000014001b528     rtl:rtl290.bpl
 0002:00008530       __imp__ZN6System11Ansistrings8TrimLeftENS_11AnsiStringTILt0EEE 000000014001b530     rtl:rtl290.bpl
 0002:00008538       __imp__ZN6System11Ansistrings9TrimRightENS_11AnsiStringTILt0EEE 000000014001b538     rtl:rtl290.bpl
 0002:00008540       __imp__ZN6System11Netencoding12TNetEncoding14GetURLEncodingEv 000000014001b540     rtl:rtl290.bpl
 0002:00008548       __imp__ZN6System11Netencoding12TNetEncoding6EncodeENS_13UnicodeStringE 000000014001b548     rtl:rtl290.bpl
 0002:00008550       __imp__ZN6System11Netencoding14initializationEv 000000014001b550     rtl:rtl290.bpl
 0002:00008558       __imp__ZN6System11_DoneExceptEv 000000014001b558     rtl:rtl290.bpl
 0002:00008560       __imp__ZN6System11_LStrDeleteERNS_11AnsiStringTILt0EEEii 000000014001b560     rtl:rtl290.bpl
 0002:00008568       __imp__ZN6System11_LStrInsertENS_11AnsiStringTILt0EEERS1_i 000000014001b568     rtl:rtl290.bpl
 0002:00008570       __imp__ZN6System11_RaiseAgainEv 000000014001b570     rtl:rtl290.bpl
 0002:00008578       __imp__ZN6System11_UStrDeleteERNS_13UnicodeStringEii 000000014001b578     rtl:rtl290.bpl
 0002:00008580       __imp__ZN6System11_UStrInsertENS_13UnicodeStringERS0_i 000000014001b580     rtl:rtl290.bpl
 0002:00008588       __imp__ZN6System11_WStrDeleteERNS_10WideStringEii 000000014001b588     rtl:rtl290.bpl
 0002:00008590       __imp__ZN6System11_WStrInsertENS_10WideStringERS0_i 000000014001b590     rtl:rtl290.bpl
 0002:00008598       .refptr._ZN6System12MainInstanceE 000000014001b598     rtl:rtl290.bpl
 0002:00008598       _ZN6System12MainInstanceE  000000014001b598     rtl:rtl290.bpl
 0002:000085a0       __imp__ZN6System12SetRaiseListEPv 000000014001b5a0     rtl:rtl290.bpl
 0002:000085a8       __imp__ZN6System12StringOfCharEci 000000014001b5a8     rtl:rtl290.bpl
 0002:000085b0       __imp__ZN6System12StringOfCharEwi 000000014001b5b0     rtl:rtl290.bpl
 0002:000085b8       __imp__ZN6System12UniqueStringERNS_13UnicodeStringE 000000014001b5b8     rtl:rtl290.bpl
 0002:000085c0       __imp__ZN6System12_ClassCreateEPva 000000014001b5c0     rtl:rtl290.bpl
 0002:000085c8       __imp__ZN6System12_DynArrayAsgERPvS0_S0_ 000000014001b5c8     rtl:rtl290.bpl
 0002:000085d0       __imp__ZN6System12_PackageLoadEPNS_16PackageInfoTableEPNS_10TLibModuleE 000000014001b5d0     rtl:rtl290.bpl
 0002:000085d8       __imp__ZN6System12_RaiseExceptEPNS_7TObjectE 000000014001b5d8     rtl:rtl290.bpl
 0002:000085e0       .refptr._ZN6System13ExceptObjProcE 000000014001b5e0     rtl:rtl290.bpl
 0002:000085e0       _ZN6System13ExceptObjProcE 000000014001b5e0     rtl:rtl290.bpl
 0002:000085e8       __imp__ZN6System13FindHInstanceEPv 000000014001b5e8     rtl:rtl290.bpl
 0002:000085f0       .refptr._ZN6System13IsMultiThreadE 000000014001b5f0     rtl:rtl290.bpl
 0002:000085f0       _ZN6System13IsMultiThreadE 000000014001b5f0     rtl:rtl290.bpl
 0002:000085f8       __imp__ZN6System13LoadResStringEPNS_13TResStringRecE 000000014001b5f8     rtl:rtl290.bpl
 0002:00008600       __imp__ZN6System13_ClassDestroyEPNS_7TObjectE 000000014001b600     rtl:rtl290.bpl
 0002:00008608       __imp__ZN6System13_LStrFromUStrERNS_11AnsiStringTILt0EEENS_13UnicodeStringEt 000000014001b608     rtl:rtl290.bpl
 0002:00008610       __imp__ZN6System13_LStrFromWStrERNS_11AnsiStringTILt0EEENS_10WideStringEt 000000014001b610     rtl:rtl290.bpl
 0002:00008618       __imp__ZN6System13_UStrArrayClrEPvi 000000014001b618     rtl:rtl290.bpl
 0002:00008620       __imp__ZN6System13_UStrFromLStrERNS_13UnicodeStringENS_11AnsiStringTILt0EEE 000000014001b620     rtl:rtl290.bpl
 0002:00008628       __imp__ZN6System13_UStrFromWStrERNS_13UnicodeStringENS_10WideStringE 000000014001b628     rtl:rtl290.bpl
 0002:00008630       __imp__ZN6System13_WStrFromLStrERNS_10WideStringENS_11AnsiStringTILt0EEE 000000014001b630     rtl:rtl290.bpl
 0002:00008638       __imp__ZN6System13_WStrFromUStrERNS_10WideStringENS_13UnicodeStringE 000000014001b638     rtl:rtl290.bpl
 0002:00008640       __imp__ZN6System14RegisterModuleEPNS_10TLibModuleE 000000014001b640     rtl:rtl290.bpl
 0002:00008648       __imp__ZN6System14_AbstractErrorEv 000000014001b648     rtl:rtl290.bpl
 0002:00008650       __imp__ZN6System14_DynArrayClearERPvS0_ 000000014001b650     rtl:rtl290.bpl
 0002:00008658       __imp__ZN6System14_LStrFromPCharERNS_11AnsiStringTILt0EEEPct 000000014001b658     rtl:rtl290.bpl
 0002:00008660       __imp__ZN6System14_LStrFromWCharERNS_11AnsiStringTILt0EEEwt 000000014001b660     rtl:rtl290.bpl
 0002:00008668       __imp__ZN6System14_LStrSetLengthERNS_11AnsiStringTILt0EEEit 000000014001b668     rtl:rtl290.bpl
 0002:00008670       __imp__ZN6System14_PackageUnloadEPNS_16PackageInfoTableEPNS_10TLibModuleE 000000014001b670     rtl:rtl290.bpl
 0002:00008678       __imp__ZN6System14_RaiseAtExceptEPNS_7TObjectEPv 000000014001b678     rtl:rtl290.bpl
 0002:00008680       __imp__ZN6System14_UStrFromPCharERNS_13UnicodeStringEPc 000000014001b680     rtl:rtl290.bpl
 0002:00008688       __imp__ZN6System14_UStrSetLengthERNS_13UnicodeStringEi 000000014001b688     rtl:rtl290.bpl
 0002:00008690       __imp__ZN6System14_WStrFromPCharERNS_10WideStringEPc 000000014001b690     rtl:rtl290.bpl
 0002:00008698       __imp__ZN6System14_WStrSetLengthERNS_10WideStringEi 000000014001b698     rtl:rtl290.bpl
 0002:000086a0       __imp__ZN6System14initializationEv 000000014001b6a0     rtl:rtl290.bpl
 0002:000086a8       __imp__ZN6System15_UStrFromPWCharERNS_13UnicodeStringEPw 000000014001b6a8     rtl:rtl290.bpl
 0002:000086b0       __imp__ZN6System16SetMemoryManagerERKNS_16TMemoryManagerExE 000000014001b6b0     rtl:rtl290.bpl
 0002:000086b8       __imp__ZN6System16UnregisterModuleEPNS_10TLibModuleE 000000014001b6b8     rtl:rtl290.bpl
 0002:000086c0       __imp__ZN6System16_CheckAutoResultEl 000000014001b6c0     rtl:rtl290.bpl
 0002:000086c8       __imp__ZN6System17TInterfacedObject11NewInstanceEv 000000014001b6c8     rtl:rtl290.bpl
 0002:000086d0       __imp__ZN6System17TInterfacedObject14QueryInterfaceERK5_GUIDPv 000000014001b6d0     rtl:rtl290.bpl
 0002:000086d8       __imp__ZN6System17TInterfacedObject17AfterConstructionEv 000000014001b6d8     rtl:rtl290.bpl
 0002:000086e0       __imp__ZN6System17TInterfacedObject17BeforeDestructionEv 000000014001b6e0     rtl:rtl290.bpl
 0002:000086e8       __imp__ZN6System17TInterfacedObject7_AddRefEv 000000014001b6e8     rtl:rtl290.bpl
 0002:000086f0       __imp__ZN6System17TInterfacedObject8_ReleaseEv 000000014001b6f0     rtl:rtl290.bpl
 0002:000086f8       __imp__ZN6System17_DestroyExceptionEP18TExceptionPointersy 000000014001b6f8     rtl:rtl290.bpl
 0002:00008700       __imp__ZN6System18IsMemoryManagerSetEv 000000014001b700     rtl:rtl290.bpl
 0002:00008708       __imp__ZN6System18_AfterConstructionEPNS_7TObjectE 000000014001b708     rtl:rtl290.bpl
 0002:00008710       __imp__ZN6System18_BeforeDestructionEPNS_7TObjectEa 000000014001b710     rtl:rtl290.bpl
 0002:00008718       __imp__ZN6System18_DynArraySetLengthERPvS0_x 000000014001b718     rtl:rtl290.bpl
 0002:00008720       __imp__ZN6System18_LStrFromPWCharLenERNS_11AnsiStringTILt0EEEPwit 000000014001b720     rtl:rtl290.bpl
 0002:00008728       __imp__ZN6System19UTF8ToUnicodeStringEPKc 000000014001b728     rtl:rtl290.bpl
 0002:00008730       .refptr._ZN6System21DefaultSystemCodePageE 000000014001b730     rtl:rtl290.bpl
 0002:00008730       _ZN6System21DefaultSystemCodePageE 000000014001b730     rtl:rtl290.bpl
 0002:00008738       __imp__ZN6System23_DelphiExceptionHandlerEPNS_16TExceptionRecordEyPvS2_ 000000014001b738     rtl:rtl290.bpl
 0002:00008740       __imp__ZN6System3PosENS_11AnsiStringTILt65535EEES1_i 000000014001b740     rtl:rtl290.bpl
 0002:00008748       __imp__ZN6System4Math14initializationEv 000000014001b748     rtl:rtl290.bpl
 0002:00008750       __imp__ZN6System4MoveEPKvPvx 000000014001b750     rtl:rtl290.bpl
 0002:00008758       __imp__ZN6System5Types14initializationEv 000000014001b758     rtl:rtl290.bpl
 0002:00008760       __imp__ZN6System7Classes10TComponent10CanObserveEi 000000014001b760     rtl:rtl290.bpl
 0002:00008768       __imp__ZN6System7Classes10TComponent10WriteStateEPNS0_7TWriterE 000000014001b768     rtl:rtl290.bpl
 0002:00008770       __imp__ZN6System7Classes10TComponent12GetObserversEv 000000014001b770     rtl:rtl290.bpl
 0002:00008778       __imp__ZN6System7Classes10TComponent12NotificationEPS1_NS0_10TOperationE 000000014001b778     rtl:rtl290.bpl
 0002:00008780       __imp__ZN6System7Classes10TComponent12UpdateActionEPNS0_12TBasicActionE 000000014001b780     rtl:rtl290.bpl
 0002:00008788       __imp__ZN6System7Classes10TComponent13AsyncScheduleEPNS0_16TBaseAsyncResultE 000000014001b788     rtl:rtl290.bpl
 0002:00008790       __imp__ZN6System7Classes10TComponent13ObserverAddedEiNS_15DelphiInterfaceINS0_9IObserverEEE 000000014001b790     rtl:rtl290.bpl
 0002:00008798       __imp__ZN6System7Classes10TComponent14QueryInterfaceERK5_GUIDPv 000000014001b798     rtl:rtl290.bpl
 0002:000087a0       __imp__ZN6System7Classes10TComponent14UpdateRegistryEbNS_13UnicodeStringES2_ 000000014001b7a0     rtl:rtl290.bpl
 0002:000087a8       __imp__ZN6System7Classes10TComponent14ValidateRenameEPS1_NS_13UnicodeStringES3_ 000000014001b7a8     rtl:rtl290.bpl
 0002:000087b0       __imp__ZN6System7Classes10TComponent16DefinePropertiesEPNS0_6TFilerE 000000014001b7b0     rtl:rtl290.bpl
 0002:000087b8       __imp__ZN6System7Classes10TComponent17BeforeDestructionEv 000000014001b7b8     rtl:rtl290.bpl
 0002:000087c0       __imp__ZN6System7Classes10TComponent17SafeCallExceptionEPNS_7TObjectEPv 000000014001b7c0     rtl:rtl290.bpl
 0002:000087c8       __imp__ZN6System7Classes10TComponent6LoadedEv 000000014001b7c8     rtl:rtl290.bpl
 0002:000087d0       __imp__ZN6System7Classes10TComponent7SetNameENS_13UnicodeStringE 000000014001b7d0     rtl:rtl290.bpl
 0002:000087d8       __imp__ZN6System7Classes10TComponent9ReadStateEPNS0_7TReaderE 000000014001b7d8     rtl:rtl290.bpl
 0002:000087e0       __imp__ZN6System7Classes11TCollection5ClearEv 000000014001b7e0     rtl:rtl290.bpl
 0002:000087e8       __imp__ZN6System7Classes11TDataModule16DefinePropertiesEPNS0_6TFilerE 000000014001b7e8     rtl:rtl290.bpl
 0002:000087f0       __imp__ZN6System7Classes11TDataModule17AfterConstructionEv 000000014001b7f0     rtl:rtl290.bpl
 0002:000087f8       __imp__ZN6System7Classes11TDataModule17BeforeDestructionEv 000000014001b7f8     rtl:rtl290.bpl
 0002:00008800       __imp__ZN6System7Classes11TDataModule8DoCreateEv 000000014001b800     rtl:rtl290.bpl
 0002:00008808       __imp__ZN6System7Classes11TDataModule9DoDestroyEv 000000014001b808     rtl:rtl290.bpl
 0002:00008810       __imp__ZN6System7Classes11TDataModuleC3EPNS0_10TComponentE 000000014001b810     rtl:rtl290.bpl
 0002:00008818       __imp__ZN6System7Classes11TDataModuleC3EPNS0_10TComponentEi 000000014001b818     rtl:rtl290.bpl
 0002:00008820       __imp__ZN6System7Classes11TDataModuleD0Ev 000000014001b820     rtl:rtl290.bpl
 0002:00008828       __imp__ZN6System7Classes11TPersistent6AssignEPS1_ 000000014001b828     rtl:rtl290.bpl
 0002:00008830       __imp__ZN6System7Classes11TPersistent8AssignToEPS1_ 000000014001b830     rtl:rtl290.bpl
 0002:00008838       __imp__ZN6System7Classes13TStringStream13GetDataStringEv 000000014001b838     rtl:rtl290.bpl
 0002:00008840       __imp__ZN6System7Classes13TStringStreamC3ENS_13UnicodeStringE 000000014001b840     rtl:rtl290.bpl
 0002:00008848       __imp__ZN6System7Classes14initializationEv 000000014001b848     rtl:rtl290.bpl
 0002:00008850       _ZN6System7Classes26ApplicationHandleExceptionE 000000014001b850     rtl:rtl290.bpl
 0002:00008858       __imp__ZN6System7Classes7TStream11GetPositionEv 000000014001b858     rtl:rtl290.bpl
 0002:00008860       __imp__ZN6System7Classes7TStream11SetPositionEx 000000014001b860     rtl:rtl290.bpl
 0002:00008868       _ZN6System7CmdLineE        000000014001b868     rtl:rtl290.bpl
 0002:00008870       __imp__ZN6System7TObject11GetHashCodeEv 000000014001b870     rtl:rtl290.bpl
 0002:00008878       __imp__ZN6System7TObject11NewInstanceEv 000000014001b878     rtl:rtl290.bpl
 0002:00008880       __imp__ZN6System7TObject12FreeInstanceEv 000000014001b880     rtl:rtl290.bpl
 0002:00008888       __imp__ZN6System7TObject12InheritsFromEPNS_10TMetaClassE 000000014001b888     rtl:rtl290.bpl
 0002:00008890       __imp__ZN6System7TObject14DefaultHandlerEPv 000000014001b890     rtl:rtl290.bpl
 0002:00008898       __imp__ZN6System7TObject17AfterConstructionEv 000000014001b898     rtl:rtl290.bpl
 0002:000088a0       __imp__ZN6System7TObject17BeforeDestructionEv 000000014001b8a0     rtl:rtl290.bpl
 0002:000088a8       __imp__ZN6System7TObject17SafeCallExceptionEPS0_Pv 000000014001b8a8     rtl:rtl290.bpl
 0002:000088b0       __imp__ZN6System7TObject4FreeEv 000000014001b8b0     rtl:rtl290.bpl
 0002:000088b8       __imp__ZN6System7TObject6EqualsEPS0_ 000000014001b8b8     rtl:rtl290.bpl
 0002:000088c0       __imp__ZN6System7TObject8DispatchEPv 000000014001b8c0     rtl:rtl290.bpl
 0002:000088c8       __imp__ZN6System7TObject8ToStringEv 000000014001b8c8     rtl:rtl290.bpl
 0002:000088d0       __imp__ZN6System7TObject9CPP_ABI_1Ev 000000014001b8d0     rtl:rtl290.bpl
 0002:000088d8       __imp__ZN6System7TObject9CPP_ABI_2Ev 000000014001b8d8     rtl:rtl290.bpl
 0002:000088e0       __imp__ZN6System7TObject9CPP_ABI_3Ev 000000014001b8e0     rtl:rtl290.bpl
 0002:000088e8       __imp__ZN6System7TObject9ClassInfoEv 000000014001b8e8     rtl:rtl290.bpl
 0002:000088f0       __imp__ZN6System7TObjectC3Ev 000000014001b8f0     rtl:rtl290.bpl
 0002:000088f8       __imp__ZN6System7TObjectD0Ev 000000014001b8f8     rtl:rtl290.bpl
 0002:00008900       __imp__ZN6System7Typinfo11GetTypeDataEPNS0_9TTypeInfoE 000000014001b900     rtl:rtl290.bpl
 0002:00008908       __imp__ZN6System7Typinfo11GetTypeNameEPNS0_9TTypeInfoE 000000014001b908     rtl:rtl290.bpl
 0002:00008910       __imp__ZN6System7Typinfo14initializationEv 000000014001b910     rtl:rtl290.bpl
 0002:00008918       _ZN6System7Typinfo18GetRecCompareAddrsE 000000014001b918     rtl:rtl290.bpl
 0002:00008920       __imp__ZN6System7Typinfo22TTypeInfoFieldAccessor8ToStringEv 000000014001b920     rtl:rtl290.bpl
 0002:00008928       __imp__ZN6System7Typinfo9TTypeData11UnitNameFldEv 000000014001b928     rtl:rtl290.bpl
 0002:00008930       _ZN6System8ExitProcE       000000014001b930     rtl:rtl290.bpl
 0002:00008938       __imp__ZN6System8Generics11Collections11TListHelper12DoRemoveFwd8EPKv 000000014001b938     rtl:rtl290.bpl
 0002:00008940       __imp__ZN6System8Generics11Collections11TListHelper12DoRemoveRev8EPKv 000000014001b940     rtl:rtl290.bpl
 0002:00008948       __imp__ZN6System8Generics11Collections11TListHelper12InternalAdd8EPKv 000000014001b948     rtl:rtl290.bpl
 0002:00008950       __imp__ZN6System8Generics11Collections11TListHelper13DoIndexOfFwd8EPKv 000000014001b950     rtl:rtl290.bpl
 0002:00008958       __imp__ZN6System8Generics11Collections11TListHelper13DoIndexOfRev8EPKv 000000014001b958     rtl:rtl290.bpl
 0002:00008960       __imp__ZN6System8Generics11Collections11TListHelper13InternalMove8Exx 000000014001b960     rtl:rtl290.bpl
 0002:00008968       __imp__ZN6System8Generics11Collections11TListHelper13InternalPack8ENS_15DelphiInterfaceINS2_18TInternalEmptyFuncEEE 000000014001b968     rtl:rtl290.bpl
 0002:00008970       __imp__ZN6System8Generics11Collections11TListHelper14InternalClear8Ev 000000014001b970     rtl:rtl290.bpl
 0002:00008978       __imp__ZN6System8Generics11Collections11TListHelper15InternalInsert8ExPKv 000000014001b978     rtl:rtl290.bpl
 0002:00008980       __imp__ZN6System8Generics11Collections11TListHelper15InternalToArrayERPv 000000014001b980     rtl:rtl290.bpl
 0002:00008988       __imp__ZN6System8Generics11Collections11TListHelper16InternalReverse8Ev 000000014001b988     rtl:rtl290.bpl
 0002:00008990       __imp__ZN6System8Generics11Collections11TListHelper17DoExtractItemFwd8EPKvPv 000000014001b990     rtl:rtl290.bpl
 0002:00008998       __imp__ZN6System8Generics11Collections11TListHelper17DoExtractItemRev8EPKvPv 000000014001b998     rtl:rtl290.bpl
 0002:000089a0       __imp__ZN6System8Generics11Collections11TListHelper17InternalDoDelete8ExNS1_23TCollectionNotificationE 000000014001b9a0     rtl:rtl290.bpl
 0002:000089a8       __imp__ZN6System8Generics11Collections11TListHelper17InternalExchange8Exx 000000014001b9a8     rtl:rtl290.bpl
 0002:000089b0       __imp__ZN6System8Generics11Collections11TListHelper17InternalGrowCheckEx 000000014001b9b0     rtl:rtl290.bpl
 0002:000089b8       __imp__ZN6System8Generics11Collections11TListHelper17InternalSetCount8Ex 000000014001b9b8     rtl:rtl290.bpl
 0002:000089c0       __imp__ZN6System8Generics11Collections11TListHelper19InternalSetCapacityEx 000000014001b9c0     rtl:rtl290.bpl
 0002:000089c8       __imp__ZN6System8Generics11Collections11TListHelper20InternalDeleteRange8Exx 000000014001b9c8     rtl:rtl290.bpl
 0002:000089d0       __imp__ZN6System8Generics11Collections11TListHelper20InternalInsertRange8ExPvx 000000014001b9d0     rtl:rtl290.bpl
 0002:000089d8       __imp__ZN6System8Generics11Collections11TListHelper8SetItem8EPKvx 000000014001b9d8     rtl:rtl290.bpl
 0002:000089e0       __imp__ZN6System8Generics11Collections14initializationEv 000000014001b9e0     rtl:rtl290.bpl
 0002:000089e8       __imp__ZN6System8Generics11Collections23ErrorArgumentOutOfRangeEv 000000014001b9e8     rtl:rtl290.bpl
 0002:000089f0       __imp__ZN6System8Generics11Collections23ErrorArgumentOutOfRangeExxPNS_7TObjectE 000000014001b9f0     rtl:rtl290.bpl
 0002:000089f8       __imp__ZN6System8Generics11Collections6TArray15RangeInt32ErrorEx 000000014001b9f8     rtl:rtl290.bpl
 0002:00008a00       __imp__ZN6System8Generics8Defaults13BinaryCompareEPKvS3_x 000000014001ba00     rtl:rtl290.bpl
 0002:00008a08       __imp__ZN6System8Generics8Defaults14initializationEv 000000014001ba08     rtl:rtl290.bpl
 0002:00008a10       __imp__ZN6System8Generics8Defaults16_MakeExtInstanceEPNS_7Typinfo9TTypeInfoExPPvxS6_x 000000014001ba10     rtl:rtl290.bpl
 0002:00008a18       __imp__ZN6System8Generics8Defaults17_LookupVtableInfoENS1_24TDefaultGenericInterfaceEPNS_7Typinfo9TTypeInfoEx 000000014001ba18     rtl:rtl290.bpl
 0002:00008a20       __imp__ZN6System8Strutils13ReverseStringENS_13UnicodeStringE 000000014001ba20     rtl:rtl290.bpl
 0002:00008a28       __imp__ZN6System8Syncobjs12TInterlocked8ExchangeERPvS2_ 000000014001ba28     rtl:rtl290.bpl
 0002:00008a30       __imp__ZN6System8Syncobjs12TInterlocked9IncrementERi 000000014001ba30     rtl:rtl290.bpl
 0002:00008a38       .refptr._ZN6System8Sysconst12_SRangeErrorE 000000014001ba38     rtl:rtl290.bpl
 0002:00008a38       _ZN6System8Sysconst12_SRangeErrorE 000000014001ba38     rtl:rtl290.bpl
 0002:00008a40       __imp__ZN6System8Sysutils10CurrToStrFENS_8CurrencyENS0_12TFloatFormatEi 000000014001ba40     rtl:rtl290.bpl
 0002:00008a48       __imp__ZN6System8Sysutils10FloatToStrEe 000000014001ba48     rtl:rtl290.bpl
 0002:00008a50       __imp__ZN6System8Sysutils10FloatToStrEeRKNS0_15TFormatSettingsE 000000014001ba50     rtl:rtl290.bpl
 0002:00008a58       __imp__ZN6System8Sysutils10FmtLoadStrEyPKNS_7TVarRecEx 000000014001ba58     rtl:rtl290.bpl
 0002:00008a60       __imp__ZN6System8Sysutils10StrToFloatENS_13UnicodeStringE 000000014001ba60     rtl:rtl290.bpl
 0002:00008a68       __imp__ZN6System8Sysutils11FloatToStrFEeNS0_12TFloatFormatEii 000000014001ba68     rtl:rtl290.bpl
 0002:00008a70       __imp__ZN6System8Sysutils11FormatFloatENS_13UnicodeStringEe 000000014001ba70     rtl:rtl290.bpl
 0002:00008a78       __imp__ZN6System8Sysutils11IsDelimiterENS_13UnicodeStringES1_i 000000014001ba78     rtl:rtl290.bpl
 0002:00008a80       __imp__ZN6System8Sysutils11StrToIntDefENS_13UnicodeStringEi 000000014001ba80     rtl:rtl290.bpl
 0002:00008a88       __imp__ZN6System8Sysutils11TryStrToIntENS_13UnicodeStringERi 000000014001ba88     rtl:rtl290.bpl
 0002:00008a90       __imp__ZN6System8Sysutils12AnsiLastCharENS_13UnicodeStringE 000000014001ba90     rtl:rtl290.bpl
 0002:00008a98       __imp__ZN6System8Sysutils12TryStrToBoolENS_13UnicodeStringERb 000000014001ba98     rtl:rtl290.bpl
 0002:00008aa0       __imp__ZN6System8Sysutils12TryStrToUIntENS_13UnicodeStringERj 000000014001baa0     rtl:rtl290.bpl
 0002:00008aa8       __imp__ZN6System8Sysutils13AnsiLowerCaseENS_13UnicodeStringE 000000014001baa8     rtl:rtl290.bpl
 0002:00008ab0       __imp__ZN6System8Sysutils13AnsiUpperCaseENS_13UnicodeStringE 000000014001bab0     rtl:rtl290.bpl
 0002:00008ab8       __imp__ZN6System8Sysutils13LastDelimiterENS_13UnicodeStringES1_ 000000014001bab8     rtl:rtl290.bpl
 0002:00008ac0       __imp__ZN6System8Sysutils13ShowExceptionEPNS_7TObjectEPv 000000014001bac0     rtl:rtl290.bpl
 0002:00008ac8       __imp__ZN6System8Sysutils13StrToInt64DefENS_13UnicodeStringEx 000000014001bac8     rtl:rtl290.bpl
 0002:00008ad0       __imp__ZN6System8Sysutils13TryStrToFloatENS_13UnicodeStringERe 000000014001bad0     rtl:rtl290.bpl
 0002:00008ad8       __imp__ZN6System8Sysutils13TryStrToFloatENS_13UnicodeStringEReRKNS0_15TFormatSettingsE 000000014001bad8     rtl:rtl290.bpl
 0002:00008ae0       __imp__ZN6System8Sysutils13TryStrToInt64ENS_13UnicodeStringERx 000000014001bae0     rtl:rtl290.bpl
 0002:00008ae8       __imp__ZN6System8Sysutils14TryStrToUInt64ENS_13UnicodeStringERy 000000014001bae8     rtl:rtl290.bpl
 0002:00008af0       __imp__ZN6System8Sysutils14initializationEv 000000014001baf0     rtl:rtl290.bpl
 0002:00008af8       __imp__ZN6System8Sysutils15IsPathDelimiterENS_13UnicodeStringEi 000000014001baf8     rtl:rtl290.bpl
 0002:00008b00       __imp__ZN6System8Sysutils16OutOfMemoryErrorEv 000000014001bb00     rtl:rtl290.bpl
 0002:00008b08       _ZN6System8Sysutils18GrowCollectionFuncE 000000014001bb08     rtl:rtl290.bpl
 0002:00008b10       __imp__ZN6System8Sysutils4TrimENS_13UnicodeStringE 000000014001bb10     rtl:rtl290.bpl
 0002:00008b18       __imp__ZN6System8Sysutils6FormatENS_13UnicodeStringEPKNS_7TVarRecEx 000000014001bb18     rtl:rtl290.bpl
 0002:00008b20       __imp__ZN6System8Sysutils7BytesOfENS_11AnsiStringTILt65535EEE 000000014001bb20     rtl:rtl290.bpl
 0002:00008b28       __imp__ZN6System8Sysutils7BytesOfENS_13UnicodeStringE 000000014001bb28     rtl:rtl290.bpl
 0002:00008b30       __imp__ZN6System8Sysutils7LoadStrEy 000000014001bb30     rtl:rtl290.bpl
 0002:00008b38       __imp__ZN6System8Sysutils8ByteTypeENS_13UnicodeStringEi 000000014001bb38     rtl:rtl290.bpl
 0002:00008b40       __imp__ZN6System8Sysutils8IntToHexEii 000000014001bb40     rtl:rtl290.bpl
 0002:00008b48       __imp__ZN6System8Sysutils8IntToStrEi 000000014001bb48     rtl:rtl290.bpl
 0002:00008b50       __imp__ZN6System8Sysutils8IntToStrEx 000000014001bb50     rtl:rtl290.bpl
 0002:00008b58       __imp__ZN6System8Sysutils8StrToIntENS_13UnicodeStringE 000000014001bb58     rtl:rtl290.bpl
 0002:00008b60       __imp__ZN6System8Sysutils8SupportsEPNS_7TObjectERK5_GUIDPv 000000014001bb60     rtl:rtl290.bpl
 0002:00008b68       __imp__ZN6System8Sysutils8TrimLeftENS_13UnicodeStringE 000000014001bb68     rtl:rtl290.bpl
 0002:00008b70       __imp__ZN6System8Sysutils9BoolToStrEbb 000000014001bb70     rtl:rtl290.bpl
 0002:00008b78       __imp__ZN6System8Sysutils9CurrToStrENS_8CurrencyE 000000014001bb78     rtl:rtl290.bpl
 0002:00008b80       __imp__ZN6System8Sysutils9Exception16GetBaseExceptionEv 000000014001bb80     rtl:rtl290.bpl
 0002:00008b88       __imp__ZN6System8Sysutils9Exception16RaisingExceptionEPNS_16TExceptionRecordE 000000014001bb88     rtl:rtl290.bpl
 0002:00008b90       __imp__ZN6System8Sysutils9Exception8ToStringEv 000000014001bb90     rtl:rtl290.bpl
 0002:00008b98       __imp__ZN6System8Sysutils9ExceptionC3ENS_13UnicodeStringE 000000014001bb98     rtl:rtl290.bpl
 0002:00008ba0       __imp__ZN6System8Sysutils9ExceptionC3ENS_13UnicodeStringEPKNS_7TVarRecEx 000000014001bba0     rtl:rtl290.bpl
 0002:00008ba8       __imp__ZN6System8Sysutils9ExceptionD0Ev 000000014001bba8     rtl:rtl290.bpl
 0002:00008bb0       __imp__ZN6System8Sysutils9TrimRightENS_13UnicodeStringE 000000014001bbb0     rtl:rtl290.bpl
 0002:00008bb8       __imp__ZN6System8Sysutils9UIntToStrEj 000000014001bbb8     rtl:rtl290.bpl
 0002:00008bc0       __imp__ZN6System8Sysutils9UIntToStrEy 000000014001bbc0     rtl:rtl290.bpl
 0002:00008bc8       __imp__ZN6System8_AsClassEPNS_7TObjectEPNS_10TMetaClassE 000000014001bbc8     rtl:rtl290.bpl
 0002:00008bd0       __imp__ZN6System8_IsClassEPNS_7TObjectEPNS_10TMetaClassE 000000014001bbd0     rtl:rtl290.bpl
 0002:00008bd8       __imp__ZN6System8_LStrAsgERNS_11AnsiStringTILt0EEES1_ 000000014001bbd8     rtl:rtl290.bpl
 0002:00008be0       __imp__ZN6System8_LStrCatERNS_11AnsiStringTILt0EEES1_ 000000014001bbe0     rtl:rtl290.bpl
 0002:00008be8       __imp__ZN6System8_LStrClrEPv 000000014001bbe8     rtl:rtl290.bpl
 0002:00008bf0       __imp__ZN6System8_LStrCmpENS_11AnsiStringTILt0EEES1_ 000000014001bbf0     rtl:rtl290.bpl
 0002:00008bf8       __imp__ZN6System8_LStrPosEPcS0_i 000000014001bbf8     rtl:rtl290.bpl
 0002:00008c00       __imp__ZN6System8_UStrAsgERNS_13UnicodeStringES0_ 000000014001bc00     rtl:rtl290.bpl
 0002:00008c08       __imp__ZN6System8_UStrCatERNS_13UnicodeStringES0_ 000000014001bc08     rtl:rtl290.bpl
 0002:00008c10       __imp__ZN6System8_UStrClrEPv 000000014001bc10     rtl:rtl290.bpl
 0002:00008c18       __imp__ZN6System8_UStrCmpENS_13UnicodeStringES0_ 000000014001bc18     rtl:rtl290.bpl
 0002:00008c20       __imp__ZN6System8_UStrPosEPwS0_i 000000014001bc20     rtl:rtl290.bpl
 0002:00008c28       __imp__ZN6System8_WStrAsgERNS_10WideStringES0_ 000000014001bc28     rtl:rtl290.bpl
 0002:00008c30       __imp__ZN6System8_WStrCatERNS_10WideStringES0_ 000000014001bc30     rtl:rtl290.bpl
 0002:00008c38       __imp__ZN6System8_WStrClrEPv 000000014001bc38     rtl:rtl290.bpl
 0002:00008c40       __imp__ZN6System8_WStrCmpENS_10WideStringES0_ 000000014001bc40     rtl:rtl290.bpl
 0002:00008c48       __imp__ZN6System8_WStrPosEPwS0_i 000000014001bc48     rtl:rtl290.bpl
 0002:00008c50       _ZN6System9IsConsoleE      000000014001bc50     rtl:rtl290.bpl
 0002:00008c58       _ZN6System9IsLibraryE      000000014001bc58     rtl:rtl290.bpl
 0002:00008c60       __imp__ZN6System9RaiseListEv 000000014001bc60     rtl:rtl290.bpl
 0002:00008c68       __imp__ZN6System9_IntfCopyERNS_15DelphiInterfaceINS_10IInterfaceEEES2_ 000000014001bc68     rtl:rtl290.bpl
 0002:00008c70       __imp__ZN6System9_LStrCat3ERNS_11AnsiStringTILt0EEES1_S1_ 000000014001bc70     rtl:rtl290.bpl
 0002:00008c78       __imp__ZN6System9_LStrCopyENS_11AnsiStringTILt0EEEii 000000014001bc78     rtl:rtl290.bpl
 0002:00008c80       __imp__ZN6System9_RunErrorEh 000000014001bc80     rtl:rtl290.bpl
 0002:00008c88       __imp__ZN6System9_StartExeEPNS_16PackageInfoTableEPNS_10TLibModuleE 000000014001bc88     rtl:rtl290.bpl
 0002:00008c90       __imp__ZN6System9_StartLibEPNS_12TInitContextEPNS_16PackageInfoTableEPNS_10TLibModuleEPvPFviS6_EyjS6_ 000000014001bc90     rtl:rtl290.bpl
 0002:00008c98       __imp__ZN6System9_UStrCat3ERNS_13UnicodeStringES0_S0_ 000000014001bc98     rtl:rtl290.bpl
 0002:00008ca0       __imp__ZN6System9_UStrCopyENS_13UnicodeStringEii 000000014001bca0     rtl:rtl290.bpl
 0002:00008ca8       __imp__ZN6System9_UStrLAsgERNS_13UnicodeStringES0_ 000000014001bca8     rtl:rtl290.bpl
 0002:00008cb0       __imp__ZN6System9_WStrCat3ERNS_10WideStringES0_S0_ 000000014001bcb0     rtl:rtl290.bpl
 0002:00008cb8       __imp__ZN6System9_WStrCopyENS_10WideStringEii 000000014001bcb8     rtl:rtl290.bpl
 0002:00008cc0       _ZTRN6System10IInterfaceE  000000014001bcc0     rtl:rtl290.bpl
 0002:00008cc8       _ZTRN6System11IEnumerableE 000000014001bcc8     rtl:rtl290.bpl
 0002:00008cd0       _ZTRN6System11IEnumeratorE 000000014001bcd0     rtl:rtl290.bpl
 0002:00008cd8       _ZTRN6System13PPointerArrayE 000000014001bcd8     rtl:rtl290.bpl
 0002:00008ce0       _ZTRN6System13PResStringRecE 000000014001bce0     rtl:rtl290.bpl
 0002:00008ce8       _ZTRN6System15UnsafeAttributeE 000000014001bce8     rtl:rtl290.bpl
 0002:00008cf0       _ZTRN6System17TInterfacedObjectE 000000014001bcf0     rtl:rtl290.bpl
 0002:00008cf8       _ZTRN6System4ByteE         000000014001bcf8     rtl:rtl290.bpl
 0002:00008d00       _ZTRN6System4WordE         000000014001bd00     rtl:rtl290.bpl
 0002:00008d08       _ZTRN6System5Int64E        000000014001bd08     rtl:rtl290.bpl
 0002:00008d10       _ZTRN6System5Types10TDirectionE 000000014001bd10     rtl:rtl290.bpl
 0002:00008d18       _ZTRN6System6UInt64E       000000014001bd18     rtl:rtl290.bpl
 0002:00008d20       _ZTRN6System6stringE       000000014001bd20     rtl:rtl290.bpl
 0002:00008d28       _ZTRN6System7BooleanE      000000014001bd28     rtl:rtl290.bpl
 0002:00008d30       _ZTRN6System7Classes10TComponentE 000000014001bd30     rtl:rtl290.bpl
 0002:00008d38       _ZTRN6System7Classes11TDataModuleE 000000014001bd38     rtl:rtl290.bpl
 0002:00008d40       _ZTRN6System7Classes15TCollectionItemE 000000014001bd40     rtl:rtl290.bpl
 0002:00008d48       _ZTRN6System7Classes15TComponentClassE 000000014001bd48     rtl:rtl290.bpl
 0002:00008d50       _ZTRN6System7Classes7TStreamE 000000014001bd50     rtl:rtl290.bpl
 0002:00008d58       _ZTRN6System7IntegerE      000000014001bd58     rtl:rtl290.bpl
 0002:00008d60       _ZTRN6System7PointerE      000000014001bd60     rtl:rtl290.bpl
 0002:00008d68       _ZTRN6System7TObjectE      000000014001bd68     rtl:rtl290.bpl
 0002:00008d70       _ZTRN6System8AnsiCharE     000000014001bd70     rtl:rtl290.bpl
 0002:00008d78       _ZTRN6System8CardinalE     000000014001bd78     rtl:rtl290.bpl
 0002:00008d80       _ZTRN6System8Generics11Collections11TListHelper19TInternalNotifyProcE 000000014001bd80     rtl:rtl290.bpl
 0002:00008d88       _ZTRN6System8Generics11Collections11TListHelper20TInternalCompareFuncE 000000014001bd88     rtl:rtl290.bpl
 0002:00008d90       _ZTRN6System8Generics11Collections23TCollectionNotificationE 000000014001bd90     rtl:rtl290.bpl
 0002:00008d98       _ZTRN6System8LongBoolE     000000014001bd98     rtl:rtl290.bpl
 0002:00008da0       _ZTRN6System8PPointerE     000000014001bda0     rtl:rtl290.bpl
 0002:00008da8       _ZTRN6System8Sysutils11ERangeErrorE 000000014001bda8     rtl:rtl290.bpl
 0002:00008db0       _ZTRN6System8Sysutils9ExceptionE 000000014001bdb0     rtl:rtl290.bpl
 0002:00008db8       _ZTRN6System9PAnsiCharE    000000014001bdb8     rtl:rtl290.bpl
 0002:00008dc0       _ZTRN6System9PWideCharE    000000014001bdc0     rtl:rtl290.bpl
 0002:00008dc8       _ZTVN6System17TInterfacedObjectE 000000014001bdc8     rtl:rtl290.bpl
 0002:00008dd0       _ZTVN6System7Classes11TDataModuleE 000000014001bdd0     rtl:rtl290.bpl
 0002:00008dd8       _ZTVN6System7Classes13TStringStreamE 000000014001bdd8     rtl:rtl290.bpl
 0002:00008de0       _ZTVN6System7TObjectE      000000014001bde0     rtl:rtl290.bpl
 0002:00008de8       _ZTVN6System8Sysutils10EListErrorE 000000014001bde8     rtl:rtl290.bpl
 0002:00008df0       _ZTVN6System8Sysutils11ERangeErrorE 000000014001bdf0     rtl:rtl290.bpl
 0002:00008df8       __init_record_System       000000014001bdf8     rtl:rtl290.bpl
 0002:00008e00       __init_record_System_Ansistrings 000000014001be00     rtl:rtl290.bpl
 0002:00008e08       __init_record_System_Classes 000000014001be08     rtl:rtl290.bpl
 0002:00008e10       __init_record_System_Generics_Collections 000000014001be10     rtl:rtl290.bpl
 0002:00008e18       __init_record_System_Generics_Defaults 000000014001be18     rtl:rtl290.bpl
 0002:00008e20       __init_record_System_Math  000000014001be20     rtl:rtl290.bpl
 0002:00008e28       __init_record_System_Netencoding 000000014001be28     rtl:rtl290.bpl
 0002:00008e30       __init_record_System_Strutils 000000014001be30     rtl:rtl290.bpl
 0002:00008e38       __init_record_System_Syncobjs 000000014001be38     rtl:rtl290.bpl
 0002:00008e40       __init_record_System_Sysconst 000000014001be40     rtl:rtl290.bpl
 0002:00008e48       __init_record_System_Sysutils 000000014001be48     rtl:rtl290.bpl
 0002:00008e50       __init_record_System_Types 000000014001be50     rtl:rtl290.bpl
 0002:00008e58       __init_record_System_Typinfo 000000014001be58     rtl:rtl290.bpl
 0002:00008e68       __imp__ZN3Web6Webreq14FreeWebModulesEv 000000014001be68     inet:inet290.bpl
 0002:00008e70       __imp__ZN3Web6Webreq14initializationEv 000000014001be70     inet:inet290.bpl
 0002:00008e78       __imp__ZN3Web6Webreq17WebRequestHandlerEv 000000014001be78     inet:inet290.bpl
 0002:00008e80       __imp__ZN3Web6Webreq18TWebRequestHandler11FreeModulesEv 000000014001be80     inet:inet290.bpl
 0002:00008e88       __imp__ZN3Web6Webreq18TWebRequestHandler13HandleRequestEPNS_7Httpapp11TWebRequestEPNS2_12TWebResponseE 000000014001be88     inet:inet290.bpl
 0002:00008e90       __imp__ZN3Web6Webreq18TWebRequestHandler15HandleExceptionEPN6System7TObjectE 000000014001be90     inet:inet290.bpl
 0002:00008e98       __imp__ZN3Web6Webreq18TWebRequestHandlerC3EPN6System7Classes10TComponentE 000000014001be98     inet:inet290.bpl
 0002:00008ea0       __imp__ZN3Web6Webreq18TWebRequestHandlerD0Ev 000000014001bea0     inet:inet290.bpl
 0002:00008ea8       _ZN3Web6Webreq21WebRequestHandlerProcE 000000014001bea8     inet:inet290.bpl
 0002:00008eb0       __imp__ZN3Web7Httpapp10TWebModuleC3EPN6System7Classes10TComponentE 000000014001beb0     inet:inet290.bpl
 0002:00008eb8       __imp__ZN3Web7Httpapp11TWebRequest15GetCookieFieldsEv 000000014001beb8     inet:inet290.bpl
 0002:00008ec0       __imp__ZN3Web7Httpapp11TWebRequest18DoReadTotalContentEv 000000014001bec0     inet:inet290.bpl
 0002:00008ec8       __imp__ZN3Web7Httpapp11TWebRequest19GetInternalPathInfoEv 000000014001bec8     inet:inet290.bpl
 0002:00008ed0       __imp__ZN3Web7Httpapp11TWebRequest21GetInternalScriptNameEv 000000014001bed0     inet:inet290.bpl
 0002:00008ed8       __imp__ZN3Web7Httpapp11TWebRequestC3Ev 000000014001bed8     inet:inet290.bpl
 0002:00008ee0       __imp__ZN3Web7Httpapp11TWebRequestD0Ev 000000014001bee0     inet:inet290.bpl
 0002:00008ee8       __imp__ZN3Web7Httpapp12TWebResponse16SetContentStreamEPN6System7Classes7TStreamE 000000014001bee8     inet:inet290.bpl
 0002:00008ef0       __imp__ZN3Web7Httpapp12TWebResponseC3EPNS0_11TWebRequestE 000000014001bef0     inet:inet290.bpl
 0002:00008ef8       __imp__ZN3Web7Httpapp12TWebResponseD0Ev 000000014001bef8     inet:inet290.bpl
 0002:00008f00       __imp__ZN3Web7Httpapp14DefaultCharSetEv 000000014001bf00     inet:inet290.bpl
 0002:00008f08       __imp__ZN3Web7Httpapp14initializationEv 000000014001bf08     inet:inet290.bpl
 0002:00008f10       __imp__ZN3Web7Httpapp17TCookieCollection9GetCookieEi 000000014001bf10     inet:inet290.bpl
 0002:00008f18       __imp__ZN3Web7Httpapp20TCustomWebDispatcher12NotificationEPN6System7Classes10TComponentENS3_10TOperationE 000000014001bf18     inet:inet290.bpl
 0002:00008f20       __imp__ZN3Web7Httpapp20TCustomWebDispatcher14DispatchActionEPNS0_11TWebRequestEPNS0_12TWebResponseE 000000014001bf20     inet:inet290.bpl
 0002:00008f28       __imp__ZN3Web7Httpapp20TCustomWebDispatcherC3EPN6System7Classes10TComponentE 000000014001bf28     inet:inet290.bpl
 0002:00008f30       __imp__ZN3Web7Httpapp20TCustomWebDispatcherD0Ev 000000014001bf30     inet:inet290.bpl
 0002:00008f38       __imp__ZN3Web7Httpapp9ParseDateEN6System13UnicodeStringE 000000014001bf38     inet:inet290.bpl
 0002:00008f40       _ZTRN3Web6Webreq18TWebRequestHandlerE 000000014001bf40     inet:inet290.bpl
 0002:00008f48       _ZTRN3Web7Httpapp10TWebModuleE 000000014001bf48     inet:inet290.bpl
 0002:00008f50       _ZTRN3Web7Httpapp11TWebRequestE 000000014001bf50     inet:inet290.bpl
 0002:00008f58       _ZTRN3Web7Httpapp12TWebResponseE 000000014001bf58     inet:inet290.bpl
 0002:00008f60       _ZTRN3Web7Httpapp20TCustomWebDispatcherE 000000014001bf60     inet:inet290.bpl
 0002:00008f68       _ZTVN3Web6Webreq18TWebRequestHandlerE 000000014001bf68     inet:inet290.bpl
 0002:00008f70       _ZTVN3Web7Httpapp10TWebModuleE 000000014001bf70     inet:inet290.bpl
 0002:00008f78       _ZTVN3Web7Httpapp11TWebRequestE 000000014001bf78     inet:inet290.bpl
 0002:00008f80       _ZTVN3Web7Httpapp12TWebResponseE 000000014001bf80     inet:inet290.bpl
 0002:00008f88       _ZTVN3Web7Httpapp20TCustomWebDispatcherE 000000014001bf88     inet:inet290.bpl
 0002:00008f90       __init_record_Web_Httpapp  000000014001bf90     inet:inet290.bpl
 0002:00008f98       __init_record_Web_Webreq   000000014001bf98     inet:inet290.bpl
 0002:00008fa8       .refptr._ZN3Vcl5Forms11ApplicationE 000000014001bfa8     vcl:vcl290.bpl
 0002:00008fa8       _ZN3Vcl5Forms11ApplicationE 000000014001bfa8     vcl:vcl290.bpl
 0002:00008fb0       __imp__ZN3Vcl5Forms11TCustomForm10CloseQueryEv 000000014001bfb0     vcl:vcl290.bpl
 0002:00008fb8       __imp__ZN3Vcl5Forms11TCustomForm11GetFloatingEv 000000014001bfb8     vcl:vcl290.bpl
 0002:00008fc0       __imp__ZN3Vcl5Forms11TCustomForm11PaintWindowEP5HDC__ 000000014001bfc0     vcl:vcl290.bpl
 0002:00008fc8       __imp__ZN3Vcl5Forms11TCustomForm11ScaleForPPIEi 000000014001bfc8     vcl:vcl290.bpl
 0002:00008fd0       __imp__ZN3Vcl5Forms11TCustomForm12CreateParamsERNS_8Controls13TCreateParamsE 000000014001bfd0     vcl:vcl290.bpl
 0002:00008fd8       __imp__ZN3Vcl5Forms11TCustomForm12GetDesignDpiEv 000000014001bfd8     vcl:vcl290.bpl
 0002:00008fe0       __imp__ZN3Vcl5Forms11TCustomForm12NotificationEPN6System7Classes10TComponentENS3_10TOperationE 000000014001bfe0     vcl:vcl290.bpl
 0002:00008fe8       __imp__ZN3Vcl5Forms11TCustomForm12RequestAlignEv 000000014001bfe8     vcl:vcl290.bpl
 0002:00008ff0       __imp__ZN3Vcl5Forms11TCustomForm12WantChildKeyEPNS_8Controls8TControlERN6Winapi8Messages8TMessageE 000000014001bff0     vcl:vcl290.bpl
 0002:00008ff8       __imp__ZN3Vcl5Forms11TCustomForm13AlignControlsEPNS_8Controls8TControlERN6System5Types5TRectE 000000014001bff8     vcl:vcl290.bpl
 0002:00009000       __imp__ZN3Vcl5Forms11TCustomForm13ClientWndProcERN6Winapi8Messages8TMessageE 000000014001c000     vcl:vcl290.bpl
 0002:00009008       __imp__ZN3Vcl5Forms11TCustomForm13DestroyHandleEv 000000014001c008     vcl:vcl290.bpl
 0002:00009010       __imp__ZN3Vcl5Forms11TCustomForm13GetClientRectEv 000000014001c010     vcl:vcl290.bpl
 0002:00009018       __imp__ZN3Vcl5Forms11TCustomForm13UpdateActionsEv 000000014001c018     vcl:vcl290.bpl
 0002:00009020       __imp__ZN3Vcl5Forms11TCustomForm14DefaultHandlerEPv 000000014001c020     vcl:vcl290.bpl
 0002:00009028       __imp__ZN3Vcl5Forms11TCustomForm14QueryInterfaceERK5_GUIDPv 000000014001c028     vcl:vcl290.bpl
 0002:00009030       __imp__ZN3Vcl5Forms11TCustomForm14ValidateRenameEPN6System7Classes10TComponentENS2_13UnicodeStringES6_ 000000014001c030     vcl:vcl290.bpl
 0002:00009038       __imp__ZN3Vcl5Forms11TCustomForm16AdjustClientRectERN6System5Types5TRectE 000000014001c038     vcl:vcl290.bpl
 0002:00009040       __imp__ZN3Vcl5Forms11TCustomForm16CanShowInTaskBarEv 000000014001c040     vcl:vcl290.bpl
 0002:00009048       __imp__ZN3Vcl5Forms11TCustomForm16DefinePropertiesEPN6System7Classes6TFilerE 000000014001c048     vcl:vcl290.bpl
 0002:00009050       __imp__ZN3Vcl5Forms11TCustomForm16SetPixelsPerInchEi 000000014001c050     vcl:vcl290.bpl
 0002:00009058       __imp__ZN3Vcl5Forms11TCustomForm17AfterConstructionEv 000000014001c058     vcl:vcl290.bpl
 0002:00009060       __imp__ZN3Vcl5Forms11TCustomForm17BeforeDestructionEv 000000014001c060     vcl:vcl290.bpl
 0002:00009068       __imp__ZN3Vcl5Forms11TCustomForm17SetFocusedControlEPNS_8Controls11TWinControlE 000000014001c068     vcl:vcl290.bpl
 0002:00009070       __imp__ZN3Vcl5Forms11TCustomForm17SetParentBiDiModeEb 000000014001c070     vcl:vcl290.bpl
 0002:00009078       __imp__ZN3Vcl5Forms11TCustomForm18CreateWindowHandleERKNS_8Controls13TCreateParamsE 000000014001c078     vcl:vcl290.bpl
 0002:00009080       __imp__ZN3Vcl5Forms11TCustomForm18ScaleForCurrentDPIEb 000000014001c080     vcl:vcl290.bpl
 0002:00009088       __imp__ZN3Vcl5Forms11TCustomForm19DestroyWindowHandleEv 000000014001c088     vcl:vcl290.bpl
 0002:00009090       __imp__ZN3Vcl5Forms11TCustomForm19DoThumbButtonNotifyEt 000000014001c090     vcl:vcl290.bpl
 0002:00009098       __imp__ZN3Vcl5Forms11TCustomForm19UpdateStyleElementsEv 000000014001c098     vcl:vcl290.bpl
 0002:000090a0       __imp__ZN3Vcl5Forms11TCustomForm20DoWritePixelsPerInchEPN6System7Classes6TFilerE 000000014001c0a0     vcl:vcl290.bpl
 0002:000090a8       __imp__ZN3Vcl5Forms11TCustomForm21DoThumbPreviewRequestEtt 000000014001c0a8     vcl:vcl290.bpl
 0002:000090b0       __imp__ZN3Vcl5Forms11TCustomForm22DoWindowPreviewRequestEv 000000014001c0b0     vcl:vcl290.bpl
 0002:000090b8       __imp__ZN3Vcl5Forms11TCustomForm24DoAfterMonitorDpiChangedEii 000000014001c0b8     vcl:vcl290.bpl
 0002:000090c0       __imp__ZN3Vcl5Forms11TCustomForm25DoBeforeMonitorDpiChangedEii 000000014001c0c0     vcl:vcl290.bpl
 0002:000090c8       __imp__ZN3Vcl5Forms11TCustomForm6LoadedEv 000000014001c0c8     vcl:vcl290.bpl
 0002:000090d0       __imp__ZN3Vcl5Forms11TCustomForm7WndProcERN6Winapi8Messages8TMessageE 000000014001c0d0     vcl:vcl290.bpl
 0002:000090d8       __imp__ZN3Vcl5Forms11TCustomForm8DoCreateEv 000000014001c0d8     vcl:vcl290.bpl
 0002:000090e0       __imp__ZN3Vcl5Forms11TCustomForm8ResizingEN6System7Uitypes12TWindowStateE 000000014001c0e0     vcl:vcl290.bpl
 0002:000090e8       __imp__ZN3Vcl5Forms11TCustomForm8SetFocusEv 000000014001c0e8     vcl:vcl290.bpl
 0002:000090f0       __imp__ZN3Vcl5Forms11TCustomForm9CreateWndEv 000000014001c0f0     vcl:vcl290.bpl
 0002:000090f8       __imp__ZN3Vcl5Forms11TCustomForm9DoDestroyEv 000000014001c0f8     vcl:vcl290.bpl
 0002:00009100       __imp__ZN3Vcl5Forms11TCustomForm9ReadStateEPN6System7Classes7TReaderE 000000014001c100     vcl:vcl290.bpl
 0002:00009108       __imp__ZN3Vcl5Forms11TCustomForm9SetParentEPNS_8Controls11TWinControlE 000000014001c108     vcl:vcl290.bpl
 0002:00009110       __imp__ZN3Vcl5Forms11TCustomForm9ShowModalEv 000000014001c110     vcl:vcl290.bpl
 0002:00009118       __imp__ZN3Vcl5Forms11TCustomFormC3EPN6System7Classes10TComponentE 000000014001c118     vcl:vcl290.bpl
 0002:00009120       __imp__ZN3Vcl5Forms11TCustomFormC3EPN6System7Classes10TComponentEi 000000014001c120     vcl:vcl290.bpl
 0002:00009128       __imp__ZN3Vcl5Forms11TCustomFormC3EPN6System7Classes10TComponentEii 000000014001c128     vcl:vcl290.bpl
 0002:00009130       __imp__ZN3Vcl5Forms11TCustomFormD0Ev 000000014001c130     vcl:vcl290.bpl
 0002:00009138       __imp__ZN3Vcl5Forms12TApplication10CreateFormEN6System7Classes15TComponentClassEPv 000000014001c138     vcl:vcl290.bpl
 0002:00009140       __imp__ZN3Vcl5Forms12TApplication10InitializeEv 000000014001c140     vcl:vcl290.bpl
 0002:00009148       __imp__ZN3Vcl5Forms12TApplication3RunEv 000000014001c148     vcl:vcl290.bpl
 0002:00009150       __imp__ZN3Vcl5Forms20TScrollingWinControl16AutoScrollInViewEPNS_8Controls8TControlE 000000014001c150     vcl:vcl290.bpl
 0002:00009158       __imp__ZN3Vcl5Forms20TScrollingWinControl17AutoScrollEnabledEv 000000014001c158     vcl:vcl290.bpl
 0002:00009160       __imp__ZN3Vcl5Forms20TScrollingWinControl19DoGetGestureOptionsERN6System3SetINS_8Controls19TInteractiveGestureELS5_0ELS5_4EEERNS3_INS4_25TInteractiveGestureOptionELS8_0ELS8_4EEE 000000014001c160     vcl:vcl290.bpl
 0002:00009168       __imp__ZN3Vcl5Forms20TScrollingWinControl9DoGestureERKNS_8Controls17TGestureEventInfoERb 000000014001c168     vcl:vcl290.bpl
 0002:00009170       __imp__ZN3Vcl8Controls11TWinControl10DestroyWndEv 000000014001c170     vcl:vcl290.bpl
 0002:00009178       __imp__ZN3Vcl8Controls11TWinControl10InvalidateEv 000000014001c178     vcl:vcl290.bpl
 0002:00009180       __imp__ZN3Vcl8Controls11TWinControl11CanAutoSizeERiS2_ 000000014001c180     vcl:vcl290.bpl
 0002:00009188       __imp__ZN3Vcl8Controls11TWinControl11ShowControlEPNS0_8TControlE 000000014001c188     vcl:vcl290.bpl
 0002:00009190       __imp__ZN3Vcl8Controls11TWinControl12CreateHandleEv 000000014001c190     vcl:vcl290.bpl
 0002:00009198       __imp__ZN3Vcl8Controls11TWinControl13AsyncScheduleEPN6System7Classes16TBaseAsyncResultE 000000014001c198     vcl:vcl290.bpl
 0002:000091a0       __imp__ZN3Vcl8Controls11TWinControl15GetClientOriginEv 000000014001c1a0     vcl:vcl290.bpl
 0002:000091a8       __imp__ZN3Vcl8Controls11TWinControl15UpdateTIPStatusEv 000000014001c1a8     vcl:vcl290.bpl
 0002:000091b0       __imp__ZN3Vcl8Controls11TWinControl16GetDeviceContextERP6HWND__ 000000014001c1b0     vcl:vcl290.bpl
 0002:000091b8       __imp__ZN3Vcl8Controls11TWinControl16GetPixelsPerInchEv 000000014001c1b8     vcl:vcl290.bpl
 0002:000091c0       __imp__ZN3Vcl8Controls11TWinControl17ConstrainedResizeERiS2_S2_S2_ 000000014001c1c0     vcl:vcl290.bpl
 0002:000091c8       __imp__ZN3Vcl8Controls11TWinControl17GetControlExtentsEv 000000014001c1c8     vcl:vcl290.bpl
 0002:000091d0       __imp__ZN3Vcl8Controls11TWinControl17GetDPIForDesignerEv 000000014001c1d0     vcl:vcl290.bpl
 0002:000091d8       __imp__ZN3Vcl8Controls11TWinControl17GetDoubleBufferedEv 000000014001c1d8     vcl:vcl290.bpl
 0002:000091e0       __imp__ZN3Vcl8Controls11TWinControl18InitMessageHandlerENS0_30TWinControlMessageHandlerClassE 000000014001c1e0     vcl:vcl290.bpl
 0002:000091e8       __imp__ZN3Vcl8Controls11TWinControl19CanEnumerateControlEPNS0_8TControlE 000000014001c1e8     vcl:vcl290.bpl
 0002:000091f0       __imp__ZN3Vcl8Controls11TWinControl19CustomAlignPositionEPNS0_8TControlERiS4_S4_S4_RN6System5Types5TRectERKNS0_10TAlignInfoE 000000014001c1f0     vcl:vcl290.bpl
 0002:000091f8       __imp__ZN3Vcl8Controls11TWinControl19ScaleControlsForDpiEi 000000014001c1f8     vcl:vcl290.bpl
 0002:00009200       __imp__ZN3Vcl8Controls11TWinControl19SetParentBackgroundEb 000000014001c200     vcl:vcl290.bpl
 0002:00009208       __imp__ZN3Vcl8Controls11TWinControl20IsDPIScalingRequiredEv 000000014001c208     vcl:vcl290.bpl
 0002:00009210       __imp__ZN3Vcl8Controls11TWinControl21CanUseDoubleBufferingEv 000000014001c210     vcl:vcl290.bpl
 0002:00009218       __imp__ZN3Vcl8Controls11TWinControl21DockReplaceDockClientEPNS0_8TControlEPS1_S3_NS0_6TAlignES3_ 000000014001c218     vcl:vcl290.bpl
 0002:00009220       __imp__ZN3Vcl8Controls11TWinControl22DoStyleElementsChangedEv 000000014001c220     vcl:vcl290.bpl
 0002:00009228       __imp__ZN3Vcl8Controls11TWinControl23CustomAlignInsertBeforeEPNS0_8TControlES3_ 000000014001c228     vcl:vcl290.bpl
 0002:00009230       __imp__ZN3Vcl8Controls11TWinControl23SetParentDoubleBufferedEb 000000014001c230     vcl:vcl290.bpl
 0002:00009238       __imp__ZN3Vcl8Controls11TWinControl24GetAllocatedWindowHandleEv 000000014001c238     vcl:vcl290.bpl
 0002:00009240       __imp__ZN3Vcl8Controls11TWinControl31UpdateControlOriginalParentSizeEPNS0_8TControlERN6System5Types6TPointE 000000014001c240     vcl:vcl290.bpl
 0002:00009248       __imp__ZN3Vcl8Controls11TWinControl6SetImeEP6HWND__ 000000014001c248     vcl:vcl290.bpl
 0002:00009250       __imp__ZN3Vcl8Controls11TWinControl6UpdateEv 000000014001c250     vcl:vcl290.bpl
 0002:00009258       __imp__ZN3Vcl8Controls11TWinControl7RepaintEv 000000014001c258     vcl:vcl290.bpl
 0002:00009260       __imp__ZN3Vcl8Controls11TWinControl8AssignToEPN6System7Classes11TPersistentE 000000014001c260     vcl:vcl290.bpl
 0002:00009268       __imp__ZN3Vcl8Controls11TWinControl8ResetImeEP6HWND__ 000000014001c268     vcl:vcl290.bpl
 0002:00009270       __imp__ZN3Vcl8Controls11TWinControl9CanResizeERiS2_ 000000014001c270     vcl:vcl290.bpl
 0002:00009278       __imp__ZN3Vcl8Controls11TWinControl9SetBoundsEiiii 000000014001c278     vcl:vcl290.bpl
 0002:00009280       __imp__ZN3Vcl8Controls8TControl10GetEnabledEv 000000014001c280     vcl:vcl290.bpl
 0002:00009288       __imp__ZN3Vcl8Controls8TControl10SetEnabledEb 000000014001c288     vcl:vcl290.bpl
 0002:00009290       __imp__ZN3Vcl8Controls8TControl11SetAutoSizeEb 000000014001c290     vcl:vcl290.bpl
 0002:00009298       __imp__ZN3Vcl8Controls8TControl11SetBiDiModeEN6System7Classes9TBiDiModeE 000000014001c298     vcl:vcl290.bpl
 0002:000092a0       __imp__ZN3Vcl8Controls8TControl11SetDragModeEN6System7Uitypes9TDragModeE 000000014001c2a0     vcl:vcl290.bpl
 0002:000092a8       __imp__ZN3Vcl8Controls8TControl12GetStyleNameEv 000000014001c2a8     vcl:vcl290.bpl
 0002:000092b0       __imp__ZN3Vcl8Controls8TControl12SetStyleNameEN6System13UnicodeStringE 000000014001c2b0     vcl:vcl290.bpl
 0002:000092b8       __imp__ZN3Vcl8Controls8TControl13GetCurrentPPIEv 000000014001c2b8     vcl:vcl290.bpl
 0002:000092c0       __imp__ZN3Vcl8Controls8TControl13GetDragImagesEv 000000014001c2c0     vcl:vcl290.bpl
 0002:000092c8       __imp__ZN3Vcl8Controls8TControl14InitiateActionEv 000000014001c2c8     vcl:vcl290.bpl
 0002:000092d0       __imp__ZN3Vcl8Controls8TControl16GetStyleElementsEv 000000014001c2d0     vcl:vcl290.bpl
 0002:000092d8       __imp__ZN3Vcl8Controls8TControl16GetSystemMetricsEi 000000014001c2d8     vcl:vcl290.bpl
 0002:000092e0       __imp__ZN3Vcl8Controls8TControl16SetStyleElementsEN6System3SetINS0_13TStyleElementELS4_0ELS4_2EEE 000000014001c2e0     vcl:vcl290.bpl
 0002:000092e8       __imp__ZN3Vcl8Controls8TControl17IsLightStyleColorEN6System7Uitypes6TColorE 000000014001c2e8     vcl:vcl290.bpl
 0002:000092f0       __imp__ZN3Vcl8Controls8TControl18CreateTouchManagerEv 000000014001c2f0     vcl:vcl290.bpl
 0002:000092f8       __imp__ZN3Vcl8Controls8TControl19DefaultScalingFlagsEv 000000014001c2f8     vcl:vcl290.bpl
 0002:00009300       __imp__ZN3Vcl8Controls8TControl19GetParentCurrentDpiEv 000000014001c300     vcl:vcl290.bpl
 0002:00009308       __imp__ZN3Vcl8Controls8TControl19IsCustomStyleActiveEv 000000014001c308     vcl:vcl290.bpl
 0002:00009310       __imp__ZN3Vcl8Controls8TControl24GetFloatingDockSiteClassEv 000000014001c310     vcl:vcl290.bpl
 0002:00009318       __imp__ZN3Vcl8Controls8TControl7GetTextEv 000000014001c318     vcl:vcl290.bpl
 0002:00009320       __imp__ZN3Vcl8Controls8TControl7SetNameEN6System13UnicodeStringE 000000014001c320     vcl:vcl290.bpl
 0002:00009328       __imp__ZN3Vcl8Controls8TControl9GetActionEv 000000014001c328     vcl:vcl290.bpl
 0002:00009330       _ZTRN3Vcl5Forms5TFormE     000000014001c330     vcl:vcl290.bpl
 0002:00009338       _ZTRN3Vcl8Appevnts18TApplicationEventsE 000000014001c338     vcl:vcl290.bpl
 0002:00009340       _ZTRN3Vcl8Stdctrls5TEditE  000000014001c340     vcl:vcl290.bpl
 0002:00009348       _ZTRN3Vcl8Stdctrls6TLabelE 000000014001c348     vcl:vcl290.bpl
 0002:00009350       _ZTRN3Vcl8Stdctrls7TButtonE 000000014001c350     vcl:vcl290.bpl
 0002:00009358       _ZTVN3Vcl5Forms5TFormE     000000014001c358     vcl:vcl290.bpl
 0002:00009360       _ZTVN3Vcl8Appevnts18TApplicationEventsE 000000014001c360     vcl:vcl290.bpl
 0002:00009368       _ZTVN3Vcl8Stdctrls5TEditE  000000014001c368     vcl:vcl290.bpl
 0002:00009370       _ZTVN3Vcl8Stdctrls6TLabelE 000000014001c370     vcl:vcl290.bpl
 0002:00009378       _ZTVN3Vcl8Stdctrls7TButtonE 000000014001c378     vcl:vcl290.bpl
 0002:00009380       __init_record_Vcl_Appevnts 000000014001c380     vcl:vcl290.bpl
 0002:00009388       __init_record_Vcl_Controls 000000014001c388     vcl:vcl290.bpl
 0002:00009390       __init_record_Vcl_Forms    000000014001c390     vcl:vcl290.bpl
 0002:00009398       __init_record_Vcl_Stdctrls 000000014001c398     vcl:vcl290.bpl
 0002:000093a8       __imp__ZN8Datasnap9Dssession17TDSSessionManager20TerminateAllSessionsEv 000000014001c3a8     DataSnapServer:DataSnapServer290.bpl
 0002:000093b0       .refptr._ZN8Datasnap9Dssession17TDSSessionManager9FInstanceE 000000014001c3b0     DataSnapServer:DataSnapServer290.bpl
 0002:000093b0       _ZN8Datasnap9Dssession17TDSSessionManager9FInstanceE 000000014001c3b0     DataSnapServer:DataSnapServer290.bpl
 0002:000093b8       _ZTRN8Datasnap15Dshttpwebbroker20TDSHTTPWebDispatcherE 000000014001c3b8     DataSnapServer:DataSnapServer290.bpl
 0002:000093c0       _ZTRN8Datasnap8Dsserver14TDSServerClassE 000000014001c3c0     DataSnapServer:DataSnapServer290.bpl
 0002:000093c8       _ZTRN8Datasnap8Dsserver9TDSServerE 000000014001c3c8     DataSnapServer:DataSnapServer290.bpl
 0002:000093d0       _ZTVN8Datasnap15Dshttpwebbroker20TDSHTTPWebDispatcherE 000000014001c3d0     DataSnapServer:DataSnapServer290.bpl
 0002:000093d8       _ZTVN8Datasnap8Dsserver14TDSServerClassE 000000014001c3d8     DataSnapServer:DataSnapServer290.bpl
 0002:000093e0       _ZTVN8Datasnap8Dsserver9TDSServerE 000000014001c3e0     DataSnapServer:DataSnapServer290.bpl
 0002:000093e8       __init_record_Datasnap_Dshttpwebbroker 000000014001c3e8     DataSnapServer:DataSnapServer290.bpl
 0002:000093f0       __init_record_Datasnap_Dsserver 000000014001c3f0     DataSnapServer:DataSnapServer290.bpl
 0002:000093f8       __init_record_Datasnap_Dssession 000000014001c3f8     DataSnapServer:DataSnapServer290.bpl
 0002:00009408       __imp__ZN10Idcharsets14initializationEv 000000014001c408     IndyProtocols:IndyProtocols290.bpl
 0002:00009410       __imp__ZN12Idheaderlist13TIdHeaderList12AddStdValuesEPN6System7Classes8TStringsE 000000014001c410     IndyProtocols:IndyProtocols290.bpl
 0002:00009418       __imp__ZN12Idheaderlist13TIdHeaderList8GetValueEN6System13UnicodeStringE 000000014001c418     IndyProtocols:IndyProtocols290.bpl
 0002:00009420       __imp__ZN12Idheaderlist13TIdHeaderList8SetValueEN6System13UnicodeStringES2_ 000000014001c420     IndyProtocols:IndyProtocols290.bpl
 0002:00009428       __imp__ZN12Idheaderlist14initializationEv 000000014001c428     IndyProtocols:IndyProtocols290.bpl
 0002:00009430       __imp__ZN16Idhttpheaderinfo14initializationEv 000000014001c430     IndyProtocols:IndyProtocols290.bpl
 0002:00009438       __imp__ZN16Idhttpheaderinfo19TIdEntityHeaderInfo14SetContentTypeEN6System13UnicodeStringE 000000014001c438     IndyProtocols:IndyProtocols290.bpl
 0002:00009440       __imp__ZN16Idhttpheaderinfo19TIdEntityHeaderInfo16SetContentLengthEx 000000014001c440     IndyProtocols:IndyProtocols290.bpl
 0002:00009448       __imp__ZN17Idglobalprotocols14initializationEv 000000014001c448     IndyProtocols:IndyProtocols290.bpl
 0002:00009450       __imp__ZN17Idglobalprotocols17CharsetToEncodingEN6System13UnicodeStringE 000000014001c450     IndyProtocols:IndyProtocols290.bpl
 0002:00009458       __imp__ZN17Idglobalprotocols19ReadStringAsCharsetEPN6System7Classes7TStreamENS0_13UnicodeStringE 000000014001c458     IndyProtocols:IndyProtocols290.bpl
 0002:00009460       __imp__ZN18Idcustomhttpserver14initializationEv 000000014001c460     IndyProtocols:IndyProtocols290.bpl
 0002:00009468       __imp__ZN18Idcustomhttpserver19TIdCustomHTTPServer12DoSessionEndEPNS_14TIdHTTPSessionE 000000014001c468     IndyProtocols:IndyProtocols290.bpl
 0002:00009470       __imp__ZN18Idcustomhttpserver19TIdCustomHTTPServer12NotificationEPN6System7Classes10TComponentENS2_10TOperationE 000000014001c470     IndyProtocols:IndyProtocols290.bpl
 0002:00009478       __imp__ZN18Idcustomhttpserver19TIdCustomHTTPServer13InitComponentEv 000000014001c478     IndyProtocols:IndyProtocols290.bpl
 0002:00009480       __imp__ZN18Idcustomhttpserver19TIdCustomHTTPServer14DoCommandErrorEPN9Idcontext10TIdContextEPNS_18TIdHTTPRequestInfoEPNS_19TIdHTTPResponseInfoEPN6System8Sysutils9ExceptionE 000000014001c480     IndyProtocols:IndyProtocols290.bpl
 0002:00009488       __imp__ZN18Idcustomhttpserver19TIdCustomHTTPServer14DoQuerySSLPortEt 000000014001c488     IndyProtocols:IndyProtocols290.bpl
 0002:00009490       __imp__ZN18Idcustomhttpserver19TIdCustomHTTPServer14DoSessionStartEPNS_14TIdHTTPSessionE 000000014001c490     IndyProtocols:IndyProtocols290.bpl
 0002:00009498       __imp__ZN18Idcustomhttpserver19TIdCustomHTTPServer16CreatePostStreamEPN9Idcontext10TIdContextEPN12Idheaderlist13TIdHeaderListERPN6System7Classes7TStreamE 000000014001c498     IndyProtocols:IndyProtocols290.bpl
 0002:000094a0       __imp__ZN18Idcustomhttpserver19TIdCustomHTTPServer16DoHeadersBlockedEPN9Idcontext10TIdContextEPN12Idheaderlist13TIdHeaderListERiRN6System13UnicodeStringESA_ 000000014001c4a0     IndyProtocols:IndyProtocols290.bpl
 0002:000094a8       __imp__ZN18Idcustomhttpserver19TIdCustomHTTPServer16DoInvalidSessionEPN9Idcontext10TIdContextEPNS_18TIdHTTPRequestInfoEPNS_19TIdHTTPResponseInfoERbN6System13UnicodeStringE 000000014001c4a8     IndyProtocols:IndyProtocols290.bpl
 0002:000094b0       __imp__ZN18Idcustomhttpserver19TIdCustomHTTPServer17DoOnCreateSessionEPN9Idcontext10TIdContextERPNS_14TIdHTTPSessionE 000000014001c4b0     IndyProtocols:IndyProtocols290.bpl
 0002:000094b8       __imp__ZN18Idcustomhttpserver19TIdCustomHTTPServer18DoHeadersAvailableEPN9Idcontext10TIdContextEN6System13UnicodeStringEPN12Idheaderlist13TIdHeaderListE 000000014001c4b8     IndyProtocols:IndyProtocols290.bpl
 0002:000094c0       __imp__ZN18Idcustomhttpserver19TIdCustomHTTPServer18DoneWithPostStreamEPN9Idcontext10TIdContextEPNS_18TIdHTTPRequestInfoE 000000014001c4c0     IndyProtocols:IndyProtocols290.bpl
 0002:000094c8       __imp__ZN18Idcustomhttpserver19TIdCustomHTTPServer20DoHeaderExpectationsEPN9Idcontext10TIdContextEN6System13UnicodeStringE 000000014001c4c8     IndyProtocols:IndyProtocols290.bpl
 0002:000094d0       __imp__ZN18Idcustomhttpserver19TIdCustomHTTPServer7StartupEv 000000014001c4d0     IndyProtocols:IndyProtocols290.bpl
 0002:000094d8       __imp__ZN18Idcustomhttpserver19TIdCustomHTTPServer8ShutdownEv 000000014001c4d8     IndyProtocols:IndyProtocols290.bpl
 0002:000094e0       __imp__ZN18Idcustomhttpserver19TIdCustomHTTPServer9DoConnectEPN9Idcontext10TIdContextE 000000014001c4e0     IndyProtocols:IndyProtocols290.bpl
 0002:000094e8       __imp__ZN18Idcustomhttpserver19TIdCustomHTTPServer9DoExecuteEPN9Idcontext10TIdContextE 000000014001c4e8     IndyProtocols:IndyProtocols290.bpl
 0002:000094f0       __imp__ZN18Idcustomhttpserver19TIdCustomHTTPServerC3EPN6System7Classes10TComponentE 000000014001c4f0     IndyProtocols:IndyProtocols290.bpl
 0002:000094f8       __imp__ZN18Idcustomhttpserver19TIdCustomHTTPServerD0Ev 000000014001c4f8     IndyProtocols:IndyProtocols290.bpl
 0002:00009500       __imp__ZN18Idcustomhttpserver19TIdHTTPResponseInfo11WriteHeaderEv 000000014001c500     IndyProtocols:IndyProtocols290.bpl
 0002:00009508       __imp__ZN18Idcustomhttpserver19TIdHTTPResponseInfo12WriteContentEv 000000014001c508     IndyProtocols:IndyProtocols290.bpl
 0002:00009510       __imp__ZN18Idcustomhttpserver19TIdHTTPResponseInfo13SetResponseNoEi 000000014001c510     IndyProtocols:IndyProtocols290.bpl
 0002:00009518       __imp__ZN18Idcustomhttpserver19TIdHTTPResponseInfo8RedirectEN6System13UnicodeStringE 000000014001c518     IndyProtocols:IndyProtocols290.bpl
 0002:00009520       __imp__ZN26Idresourcestringsprotocols14initializationEv 000000014001c520     IndyProtocols:IndyProtocols290.bpl
 0002:00009528       _ZN26Idresourcestringsprotocols22_RSWBBInvalidStringVarE 000000014001c528     IndyProtocols:IndyProtocols290.bpl
 0002:00009530       _ZN26Idresourcestringsprotocols28_RSWBBInvalidIdxSetStringVarE 000000014001c530     IndyProtocols:IndyProtocols290.bpl
 0002:00009538       _ZN26Idresourcestringsprotocols30_RSWBBInvalidIdxGetIntVariableE 000000014001c538     IndyProtocols:IndyProtocols290.bpl
 0002:00009540       _ZN26Idresourcestringsprotocols30_RSWBBInvalidIdxGetStrVariableE 000000014001c540     IndyProtocols:IndyProtocols290.bpl
 0002:00009548       _ZN26Idresourcestringsprotocols30_RSWBBInvalidIdxSetIntVariableE 000000014001c548     IndyProtocols:IndyProtocols290.bpl
 0002:00009550       _ZN26Idresourcestringsprotocols31_RSWBBInvalidIdxGetDateVariableE 000000014001c550     IndyProtocols:IndyProtocols290.bpl
 0002:00009558       _ZN26Idresourcestringsprotocols31_RSWBBInvalidIdxSetDateVariableE 000000014001c558     IndyProtocols:IndyProtocols290.bpl
 0002:00009560       __imp__ZN8Idcookie10TIdCookies3AddEv 000000014001c560     IndyProtocols:IndyProtocols290.bpl
 0002:00009568       __imp__ZN8Idcookie10TIdCookies9GetCookieEi 000000014001c568     IndyProtocols:IndyProtocols290.bpl
 0002:00009570       __imp__ZN8Idcookie14initializationEv 000000014001c570     IndyProtocols:IndyProtocols290.bpl
 0002:00009578       _ZTRN18Idcustomhttpserver18TIdHTTPRequestInfoE 000000014001c578     IndyProtocols:IndyProtocols290.bpl
 0002:00009580       _ZTRN18Idcustomhttpserver19TIdCustomHTTPServerE 000000014001c580     IndyProtocols:IndyProtocols290.bpl
 0002:00009588       _ZTRN18Idcustomhttpserver19TIdHTTPResponseInfoE 000000014001c588     IndyProtocols:IndyProtocols290.bpl
 0002:00009590       _ZTVN18Idcustomhttpserver19TIdCustomHTTPServerE 000000014001c590     IndyProtocols:IndyProtocols290.bpl
 0002:00009598       __init_record_Idcharsets   000000014001c598     IndyProtocols:IndyProtocols290.bpl
 0002:000095a0       __init_record_Idcookie     000000014001c5a0     IndyProtocols:IndyProtocols290.bpl
 0002:000095a8       __init_record_Idcustomhttpserver 000000014001c5a8     IndyProtocols:IndyProtocols290.bpl
 0002:000095b0       __init_record_Idglobalprotocols 000000014001c5b0     IndyProtocols:IndyProtocols290.bpl
 0002:000095b8       __init_record_Idheaderlist 000000014001c5b8     IndyProtocols:IndyProtocols290.bpl
 0002:000095c0       __init_record_Idhttpheaderinfo 000000014001c5c0     IndyProtocols:IndyProtocols290.bpl
 0002:000095c8       __init_record_Idresourcestringsprotocols 000000014001c5c8     IndyProtocols:IndyProtocols290.bpl
 0002:000095d8       __imp__set_new_mode        000000014001c5d8     libucrt:api-ms-win-crt-heap-l1-1-0.dll
 0002:000095e0       __imp_calloc               000000014001c5e0     libucrt:api-ms-win-crt-heap-l1-1-0.dll
 0002:000095e8       __imp_free                 000000014001c5e8     libucrt:api-ms-win-crt-heap-l1-1-0.dll
 0002:000095f0       __imp_malloc               000000014001c5f0     libucrt:api-ms-win-crt-heap-l1-1-0.dll
 0002:000095f8       __imp_realloc              000000014001c5f8     libucrt:api-ms-win-crt-heap-l1-1-0.dll
 0002:00009608       __imp___C_specific_handler 000000014001c608     libucrt:api-ms-win-crt-private-l1-1-0.dll
 0002:00009610       __imp_memcpy               000000014001c610     libucrt:api-ms-win-crt-private-l1-1-0.dll
 0002:00009618       __imp_memmove              000000014001c618     libucrt:api-ms-win-crt-private-l1-1-0.dll
 0002:00009628       __imp___p___argc           000000014001c628     libucrt:api-ms-win-crt-runtime-l1-1-0.dll
 0002:00009630       __imp___p___argv           000000014001c630     libucrt:api-ms-win-crt-runtime-l1-1-0.dll
 0002:00009638       __imp___p___wargv          000000014001c638     libucrt:api-ms-win-crt-runtime-l1-1-0.dll
 0002:00009640       __imp___p__acmdln          000000014001c640     libucrt:api-ms-win-crt-runtime-l1-1-0.dll
 0002:00009648       __imp__assert              000000014001c648     libucrt:api-ms-win-crt-runtime-l1-1-0.dll
 0002:00009650       __imp__cexit               000000014001c650     libucrt:api-ms-win-crt-runtime-l1-1-0.dll
 0002:00009658       __imp__configure_narrow_argv 000000014001c658     libucrt:api-ms-win-crt-runtime-l1-1-0.dll
 0002:00009660       __imp__configure_wide_argv 000000014001c660     libucrt:api-ms-win-crt-runtime-l1-1-0.dll
 0002:00009668       __imp__crt_at_quick_exit   000000014001c668     libucrt:api-ms-win-crt-runtime-l1-1-0.dll
 0002:00009670       __imp__crt_atexit          000000014001c670     libucrt:api-ms-win-crt-runtime-l1-1-0.dll
 0002:00009678       __imp__exit                000000014001c678     libucrt:api-ms-win-crt-runtime-l1-1-0.dll
 0002:00009680       __imp__initialize_narrow_environment 000000014001c680     libucrt:api-ms-win-crt-runtime-l1-1-0.dll
 0002:00009688       __imp__initialize_wide_environment 000000014001c688     libucrt:api-ms-win-crt-runtime-l1-1-0.dll
 0002:00009690       __imp__initterm            000000014001c690     libucrt:api-ms-win-crt-runtime-l1-1-0.dll
 0002:00009698       __imp__set_app_type        000000014001c698     libucrt:api-ms-win-crt-runtime-l1-1-0.dll
 0002:000096a0       __imp__set_invalid_parameter_handler 000000014001c6a0     libucrt:api-ms-win-crt-runtime-l1-1-0.dll
 0002:000096a8       __imp_abort                000000014001c6a8     libucrt:api-ms-win-crt-runtime-l1-1-0.dll
 0002:000096b0       __imp_exit                 000000014001c6b0     libucrt:api-ms-win-crt-runtime-l1-1-0.dll
 0002:000096b8       __imp_signal               000000014001c6b8     libucrt:api-ms-win-crt-runtime-l1-1-0.dll
 0002:000096c8       __imp___acrt_iob_func      000000014001c6c8     libucrt:api-ms-win-crt-stdio-l1-1-0.dll
 0002:000096d0       __imp___p__commode         000000014001c6d0     libucrt:api-ms-win-crt-stdio-l1-1-0.dll
 0002:000096d8       __imp___p__fmode           000000014001c6d8     libucrt:api-ms-win-crt-stdio-l1-1-0.dll
 0002:000096e0       __imp___stdio_common_vfprintf 000000014001c6e0     libucrt:api-ms-win-crt-stdio-l1-1-0.dll
 0002:000096e8       __imp___stdio_common_vfwprintf 000000014001c6e8     libucrt:api-ms-win-crt-stdio-l1-1-0.dll
 0002:000096f0       __imp___stdio_common_vsprintf 000000014001c6f0     libucrt:api-ms-win-crt-stdio-l1-1-0.dll
 0002:000096f8       __imp___stdio_common_vswprintf 000000014001c6f8     libucrt:api-ms-win-crt-stdio-l1-1-0.dll
 0002:00009708       __imp__strdup              000000014001c708     libucrt:api-ms-win-crt-string-l1-1-0.dll
 0002:00009710       __imp_memset               000000014001c710     libucrt:api-ms-win-crt-string-l1-1-0.dll
 0002:00009718       __imp_strlen               000000014001c718     libucrt:api-ms-win-crt-string-l1-1-0.dll
 0002:00009720       __imp_strncmp              000000014001c720     libucrt:api-ms-win-crt-string-l1-1-0.dll
 0002:00009730       __imp__ZNSt20bad_array_new_lengthC1Ev 000000014001c730     libc++.dll:libc++.dll
 0002:00009738       __imp__ZNSt20bad_array_new_lengthD1Ev 000000014001c738     libc++.dll:libc++.dll
 0002:00009740       __imp__ZNSt3__112__next_primeEy 000000014001c740     libc++.dll:libc++.dll
 0002:00009748       __imp__ZNSt3__15mutex4lockEv 000000014001c748     libc++.dll:libc++.dll
 0002:00009750       __imp__ZNSt3__15mutex6unlockEv 000000014001c750     libc++.dll:libc++.dll
 0002:00009758       __imp__ZSt9terminatev      000000014001c758     libc++.dll:libc++.dll
 0002:00009760       .refptr._ZTVN10__cxxabiv117__class_type_infoE 000000014001c760     libc++.dll:libc++.dll
 0002:00009760       _ZTVN10__cxxabiv117__class_type_infoE 000000014001c760     libc++.dll:libc++.dll
 0002:00009768       _ZTVN10__cxxabiv120__si_class_type_infoE 000000014001c768     libc++.dll:libc++.dll
 0002:00009770       __imp__ZdlPv               000000014001c770     libc++.dll:libc++.dll
 0002:00009778       __imp__Znwy                000000014001c778     libc++.dll:libc++.dll
 0002:00009780       __imp___cxa_allocate_exception 000000014001c780     libc++.dll:libc++.dll
 0002:00009788       __imp___cxa_begin_catch    000000014001c788     libc++.dll:libc++.dll
 0002:00009790       __imp___cxa_end_catch      000000014001c790     libc++.dll:libc++.dll
 0002:00009798       __imp___cxa_guard_acquire  000000014001c798     libc++.dll:libc++.dll
 0002:000097a0       __imp___cxa_guard_release  000000014001c7a0     libc++.dll:libc++.dll
 0002:000097a8       __imp___cxa_throw          000000014001c7a8     libc++.dll:libc++.dll
 0002:000097b0       __imp___delphi_init_eh     000000014001c7b0     libc++.dll:libc++.dll
 0002:000097b8       __imp___gxx_personality_seh0 000000014001c7b8     libc++.dll:libc++.dll
 0002:000097c8       __imp__Unwind_Resume       000000014001c7c8     libunwind.dll:libunwind.dll
 0002:000097d8       __imp_CompareStringW       000000014001c7d8     import64:KERNEL32.dll
 0002:000097e0       __imp_DeleteCriticalSection 000000014001c7e0     import64:KERNEL32.dll
 0002:000097e8       __imp_EnterCriticalSection 000000014001c7e8     import64:KERNEL32.dll
 0002:000097f0       __imp_FindResourceA        000000014001c7f0     import64:KERNEL32.dll
 0002:000097f8       __imp_FreeLibrary          000000014001c7f8     import64:KERNEL32.dll
 0002:00009800       __imp_FreeResource         000000014001c800     import64:KERNEL32.dll
 0002:00009808       __imp_GetCommandLineW      000000014001c808     import64:KERNEL32.dll
 0002:00009810       __imp_GetLastError         000000014001c810     import64:KERNEL32.dll
 0002:00009818       __imp_GetModuleHandleA     000000014001c818     import64:KERNEL32.dll
 0002:00009820       __imp_GetModuleHandleW     000000014001c820     import64:KERNEL32.dll
 0002:00009828       __imp_GetProcAddress       000000014001c828     import64:KERNEL32.dll
 0002:00009830       __imp_GetStartupInfoA      000000014001c830     import64:KERNEL32.dll
 0002:00009838       __imp_InitializeCriticalSection 000000014001c838     import64:KERNEL32.dll
 0002:00009840       __imp_LeaveCriticalSection 000000014001c840     import64:KERNEL32.dll
 0002:00009848       __imp_LoadLibraryA         000000014001c848     import64:KERNEL32.dll
 0002:00009850       __imp_LoadResource         000000014001c850     import64:KERNEL32.dll
 0002:00009858       __imp_LocalAlloc           000000014001c858     import64:KERNEL32.dll
 0002:00009860       __imp_LocalFree            000000014001c860     import64:KERNEL32.dll
 0002:00009868       __imp_LockResource         000000014001c868     import64:KERNEL32.dll
 0002:00009870       __imp_MultiByteToWideChar  000000014001c870     import64:KERNEL32.dll
 0002:00009878       __imp_RaiseException       000000014001c878     import64:KERNEL32.dll
 0002:00009880       __imp_SetUnhandledExceptionFilter 000000014001c880     import64:KERNEL32.dll
 0002:00009888       __imp_Sleep                000000014001c888     import64:KERNEL32.dll
 0002:00009890       __imp_TlsAlloc             000000014001c890     import64:KERNEL32.dll
 0002:00009898       __imp_TlsFree              000000014001c898     import64:KERNEL32.dll
 0002:000098a0       __imp_TlsGetValue          000000014001c8a0     import64:KERNEL32.dll
 0002:000098a8       __imp_TlsSetValue          000000014001c8a8     import64:KERNEL32.dll
 0002:000098b0       __imp_VirtualProtect       000000014001c8b0     import64:KERNEL32.dll
 0002:000098b8       __imp_VirtualQuery         000000014001c8b8     import64:KERNEL32.dll
 0002:000098c8       __imp_ShellExecuteW        000000014001c8c8     import64:SHELL32.dll
 0002:000098d8       __imp___p__environ         000000014001c8d8     libucrt:api-ms-win-crt-environment-l1-1-0.dll
 0002:000098e0       __imp___p__wenviron        000000014001c8e0     libucrt:api-ms-win-crt-environment-l1-1-0.dll
 0002:000098f0       __imp___daylight           000000014001c8f0     libucrt:api-ms-win-crt-time-l1-1-0.dll
 0002:000098f8       __imp___timezone           000000014001c8f8     libucrt:api-ms-win-crt-time-l1-1-0.dll
 0002:00009900       __imp___tzname             000000014001c900     libucrt:api-ms-win-crt-time-l1-1-0.dll
 0002:00009908       __imp__tzset               000000014001c908     libucrt:api-ms-win-crt-time-l1-1-0.dll
 0002:00009918       __imp__ismbblead           000000014001c918     libucrt:api-ms-win-crt-multibyte-l1-1-0.dll
 0002:00009928       __imp___setusermatherr     000000014001c928     libucrt:api-ms-win-crt-math-l1-1-0.dll
 0002:00009930       __imp_ceilf                000000014001c930     libucrt:api-ms-win-crt-math-l1-1-0.dll
 0002:00009940       __imp__ZN11Idtcpserver14initializationEv 000000014001c940     IndyCore:IndyCore290.bpl
 0002:00009948       __imp__ZN14Idsockethandle14initializationEv 000000014001c948     IndyCore:IndyCore290.bpl
 0002:00009950       __imp__ZN15Idtcpconnection14initializationEv 000000014001c950     IndyCore:IndyCore290.bpl
 0002:00009958       __imp__ZN17Idcustomtcpserver14initializationEv 000000014001c958     IndyCore:IndyCore290.bpl
 0002:00009960       __imp__ZN17Idcustomtcpserver18TIdCustomTCPServer11DoAfterBindEv 000000014001c960     IndyCore:IndyCore290.bpl
 0002:00009968       __imp__ZN17Idcustomtcpserver18TIdCustomTCPServer11DoExceptionEPN9Idcontext10TIdContextEPN6System8Sysutils9ExceptionE 000000014001c968     IndyCore:IndyCore290.bpl
 0002:00009970       __imp__ZN17Idcustomtcpserver18TIdCustomTCPServer11SetBindingsEPN14Idsockethandle16TIdSocketHandlesE 000000014001c970     IndyCore:IndyCore290.bpl
 0002:00009978       __imp__ZN17Idcustomtcpserver18TIdCustomTCPServer12DoBeforeBindEPN14Idsockethandle15TIdSocketHandleE 000000014001c978     IndyCore:IndyCore290.bpl
 0002:00009980       __imp__ZN17Idcustomtcpserver18TIdCustomTCPServer12DoDisconnectEPN9Idcontext10TIdContextE 000000014001c980     IndyCore:IndyCore290.bpl
 0002:00009988       __imp__ZN17Idcustomtcpserver18TIdCustomTCPServer12SendGreetingEPN9Idcontext10TIdContextEPN7Idreply8TIdReplyE 000000014001c988     IndyCore:IndyCore290.bpl
 0002:00009990       __imp__ZN17Idcustomtcpserver18TIdCustomTCPServer12SetIOHandlerEPN17Idserveriohandler18TIdServerIOHandlerE 000000014001c990     IndyCore:IndyCore290.bpl
 0002:00009998       __imp__ZN17Idcustomtcpserver18TIdCustomTCPServer12SetInterceptEPN11Idintercept18TIdServerInterceptE 000000014001c998     IndyCore:IndyCore290.bpl
 0002:000099a0       __imp__ZN17Idcustomtcpserver18TIdCustomTCPServer12SetSchedulerEPN11Idscheduler12TIdSchedulerE 000000014001c9a0     IndyCore:IndyCore290.bpl
 0002:000099a8       __imp__ZN17Idcustomtcpserver18TIdCustomTCPServer14ContextCreatedEPN9Idcontext10TIdContextE 000000014001c9a8     IndyCore:IndyCore290.bpl
 0002:000099b0       __imp__ZN17Idcustomtcpserver18TIdCustomTCPServer14SetDefaultPortEt 000000014001c9b0     IndyCore:IndyCore290.bpl
 0002:000099b8       __imp__ZN17Idcustomtcpserver18TIdCustomTCPServer16ContextConnectedEPN9Idcontext10TIdContextE 000000014001c9b8     IndyCore:IndyCore290.bpl
 0002:000099c0       __imp__ZN17Idcustomtcpserver18TIdCustomTCPServer16CreateConnectionEv 000000014001c9c0     IndyCore:IndyCore290.bpl
 0002:000099c8       __imp__ZN17Idcustomtcpserver18TIdCustomTCPServer17CheckOkToBeActiveEv 000000014001c9c8     IndyCore:IndyCore290.bpl
 0002:000099d0       __imp__ZN17Idcustomtcpserver18TIdCustomTCPServer17DoListenExceptionEPNS_17TIdListenerThreadEPN6System8Sysutils9ExceptionE 000000014001c9d0     IndyCore:IndyCore290.bpl
 0002:000099d8       __imp__ZN17Idcustomtcpserver18TIdCustomTCPServer18DoTerminateContextEPN9Idcontext10TIdContextE 000000014001c9d8     IndyCore:IndyCore290.bpl
 0002:000099e0       __imp__ZN17Idcustomtcpserver18TIdCustomTCPServer19ContextDisconnectedEPN9Idcontext10TIdContextE 000000014001c9e0     IndyCore:IndyCore290.bpl
 0002:000099e8       __imp__ZN17Idcustomtcpserver18TIdCustomTCPServer19DoBeforeListenerRunEPN8Idthread9TIdThreadE 000000014001c9e8     IndyCore:IndyCore290.bpl
 0002:000099f0       __imp__ZN17Idcustomtcpserver18TIdCustomTCPServer24DoMaxConnectionsExceededEPN11Idiohandler12TIdIOHandlerE 000000014001c9f0     IndyCore:IndyCore290.bpl
 0002:000099f8       __imp__ZN17Idcustomtcpserver18TIdCustomTCPServer6LoadedEv 000000014001c9f8     IndyCore:IndyCore290.bpl
 0002:00009a00       __imp__ZN17Idcustomtcpserver18TIdCustomTCPServer9SetActiveEb 000000014001ca00     IndyCore:IndyCore290.bpl
 0002:00009a08       __imp__ZN17Idiohandlersocket14initializationEv 000000014001ca08     IndyCore:IndyCore290.bpl
 0002:00009a10       __imp__ZN8Idbuffer14initializationEv 000000014001ca10     IndyCore:IndyCore290.bpl
 0002:00009a18       __imp__ZN9Idcontext14initializationEv 000000014001ca18     IndyCore:IndyCore290.bpl
 0002:00009a20       _ZTRN9Idcontext10TIdContextE 000000014001ca20     IndyCore:IndyCore290.bpl
 0002:00009a28       __init_record_Idbuffer     000000014001ca28     IndyCore:IndyCore290.bpl
 0002:00009a30       __init_record_Idcontext    000000014001ca30     IndyCore:IndyCore290.bpl
 0002:00009a38       __init_record_Idcustomtcpserver 000000014001ca38     IndyCore:IndyCore290.bpl
 0002:00009a40       __init_record_Idiohandlersocket 000000014001ca40     IndyCore:IndyCore290.bpl
 0002:00009a48       __init_record_Idsockethandle 000000014001ca48     IndyCore:IndyCore290.bpl
 0002:00009a50       __init_record_Idtcpconnection 000000014001ca50     IndyCore:IndyCore290.bpl
 0002:00009a58       __init_record_Idtcpserver  000000014001ca58     IndyCore:IndyCore290.bpl
 0002:00009a68       __imp__ZN11Idcomponent12TIdComponent6DoWorkENS_9TWorkModeEx 000000014001ca68     IndySystem:IndySystem290.bpl
 0002:00009a70       __imp__ZN11Idcomponent12TIdComponent7EndWorkENS_9TWorkModeE 000000014001ca70     IndySystem:IndySystem290.bpl
 0002:00009a78       __imp__ZN11Idcomponent12TIdComponent9BeginWorkENS_9TWorkModeEx 000000014001ca78     IndySystem:IndySystem290.bpl
 0002:00009a80       __imp__ZN11Idcomponent14initializationEv 000000014001ca80     IndySystem:IndySystem290.bpl
 0002:00009a88       __imp__ZN11Idexception12EIdExceptionC3EN6System13UnicodeStringE 000000014001ca88     IndySystem:IndySystem290.bpl
 0002:00009a90       __imp__ZN11Idexception14initializationEv 000000014001ca90     IndySystem:IndySystem290.bpl
 0002:00009a98       __imp__ZN15Idbasecomponent14initializationEv 000000014001ca98     IndySystem:IndySystem290.bpl
 0002:00009aa0       __imp__ZN15Idbasecomponent23TIdInitializerComponentC3EPN6System7Classes10TComponentE 000000014001caa0     IndySystem:IndySystem290.bpl
 0002:00009aa8       __imp__ZN8Idglobal14initializationEv 000000014001caa8     IndySystem:IndySystem290.bpl
 0002:00009ab0       __imp__ZN8Idglobal18LocalTimeToUTCTimeEN6System9TDateTimeE 000000014001cab0     IndySystem:IndySystem290.bpl
 0002:00009ab8       __imp__ZN8Idglobal18UTCTimeToLocalTimeEN6System9TDateTimeE 000000014001cab8     IndySystem:IndySystem290.bpl
 0002:00009ac0       __imp__ZN8Idglobal20ReadStringFromStreamEPN6System7Classes7TStreamEiNS0_15DelphiInterfaceINS_15IIdTextEncodingEEE 000000014001cac0     IndySystem:IndySystem290.bpl
 0002:00009ac8       __imp__ZN8Idglobal5FetchERN6System13UnicodeStringES1_bb 000000014001cac8     IndySystem:IndySystem290.bpl
 0002:00009ad0       __imp__ZN8Idstream14initializationEv 000000014001cad0     IndySystem:IndySystem290.bpl
 0002:00009ad8       _ZTRN11Idexception12EIdExceptionE 000000014001cad8     IndySystem:IndySystem290.bpl
 0002:00009ae0       _ZTRN8Idglobal8TIdBytesE   000000014001cae0     IndySystem:IndySystem290.bpl
 0002:00009ae8       _ZTVN11Idexception12EIdExceptionE 000000014001cae8     IndySystem:IndySystem290.bpl
 0002:00009af0       __init_record_Idbasecomponent 000000014001caf0     IndySystem:IndySystem290.bpl
 0002:00009af8       __init_record_Idcomponent  000000014001caf8     IndySystem:IndySystem290.bpl
 0002:00009b00       __init_record_Idexception  000000014001cb00     IndySystem:IndySystem290.bpl
 0002:00009b08       __init_record_Idglobal     000000014001cb08     IndySystem:IndySystem290.bpl
 0002:00009b10       __init_record_Idstream     000000014001cb10     IndySystem:IndySystem290.bpl
 0002:00009b20       __init_record_Data_Dbxdatasnap 000000014001cb20     DataSnapCommon:DataSnapCommon290.bpl
 0002:00009b30       __init_record_Ippeercommon 000000014001cb30     IndyIPCommon:IndyIPCommon290.bpl
 0002:00009b40       __init_record_Ippeerserver 000000014001cb40     IndyIPServer:IndyIPServer290.bpl
 0003:0000001c       _ZN7Sysinit8TlsIndexE      000000014002801c     sysinit.o
 0003:00000020       _ZN7Sysinit8DataMarkE      0000000140028020     sysinit.o
 0003:00000024       _ZN7Sysinit19CoverageLibraryNameE 0000000140028024     sysinit.o
 0003:000000a8       _ZN7Sysinit8PtrToNilE      00000001400280a8     sysinit.o
 0003:000000b0       _ZN7Sysinit9FSSegBaseE     00000001400280b0     sysinit.o
 0003:000000b8       _ZN7Sysinit9GSSegBaseE     00000001400280b8     sysinit.o
 0003:000000c0       _ZN7Sysinit23UnloadDelayLoadedDLLPtrE 00000001400280c0     sysinit.o
 0003:000000c8       _ZN7Sysinit15DelayLoadHelperE 00000001400280c8     sysinit.o
 0003:000000d0       _ZN7Sysinit16pfnDliNotifyHookE 00000001400280d0     sysinit.o
 0003:000000d8       _ZN7Sysinit17pfnDliFailureHookE 00000001400280d8     sysinit.o
 0003:000000e0       _ZN7Sysinit22HrLoadAllImportsForDllE 00000001400280e0     sysinit.o
 0003:00000148       WebModuleClass             0000000140028148     UWebModuleMain.o
 0003:00000150       __imp__onexit              0000000140028150     libucrt:lib64_libucrt_extra_a-ucrtbase_compat.o
 0003:00000158       __imp_at_quick_exit        0000000140028158     libucrt:lib64_libucrt_extra_a-ucrtbase_compat.o
 0003:00000170       __imp_tzname               0000000140028170     libucrt:lib64_libucrt_extra_a-ucrtbase_compat.o
 0003:00000180       __imp_timezone             0000000140028180     libucrt:lib64_libucrt_extra_a-ucrtbase_compat.o
 0003:00000190       __imp_daylight             0000000140028190     libucrt:lib64_libucrt_extra_a-ucrtbase_compat.o
 0003:00000198       __imp___getmainargs        0000000140028198     libucrt:lib64_libucrt_extra_a-ucrtbase_compat.o
 0003:000001a0       __imp___wgetmainargs       00000001400281a0     libucrt:lib64_libucrt_extra_a-ucrtbase_compat.o
 0003:000001a8       __imp__amsg_exit           00000001400281a8     libucrt:lib64_libucrt_extra_a-ucrtbase_compat.o
 0003:000001b0       __imp__get_output_format   00000001400281b0     libucrt:lib64_libucrt_extra_a-ucrtbase_compat.o
 0003:000001b8       __imp_tzset                00000001400281b8     libucrt:lib64_libucrt_extra_a-ucrtbase_compat.o
 0003:000001c0       __imp___ms_fwprintf        00000001400281c0     libucrt:lib64_libucrt_extra_a-ucrtbase_compat.o
 0003:000001d0       __imp___initenv            00000001400281d0     libucrt:lib64_libucrt_extra_a-__initenv.o
 0003:000001d8       __imp___winitenv           00000001400281d8     libucrt:lib64_libucrt_extra_a-__initenv.o
 0003:000001e0       __isGUI                    00000001400281e0     libmingw32:lib64_libmingw32_a-crtexewin.o
 0003:000001f0       __native_dllmain_reason    00000001400281f0     libmingw32:lib64_libmingw32_a-natstart.o
 0003:000001f4       __native_vcclrit_reason    00000001400281f4     libmingw32:lib64_libmingw32_a-natstart.o
 0003:000001f8       __globallocalestatus       00000001400281f8     libmingw32:lib64_libmingw32_a-xthdloc.o
 0003:000001fc       _MINGW_INSTALL_DEBUG_MATHERR 00000001400281fc     libmingwex:lib64_libmingwex_a-mingw_matherr.o
 0003:00000200       __imp_fprintf              0000000140028200     libucrt:lib64_libucrt_extra_a-ucrt_fprintf.o
 0003:00000208       _CRT_MT                    0000000140028208     libmingw32:lib64_libmingw32_a-tlsmcrt.o
 0003:00000210       __imp_vfprintf             0000000140028210     libucrt:lib64_libucrt_extra_a-ucrt_vfprintf.o
 0003:00000218       __imp_sprintf              0000000140028218     libucrt:lib64_libucrt_extra_a-ucrt_sprintf.o
 0003:00000220       __imp_vsnprintf            0000000140028220     libucrt:lib64_libucrt_extra_a-ucrt_vsnprintf.o
 0003:00000228       _is_delphi                 0000000140028228     libmingw32:lib64_libmingw32_a-start_delphi.o
 0003:0000022c       _use_delphi                000000014002822c     libmingw32:lib64_libmingw32_a-start_delphi.o
 0003:00000230       __isDLL                    0000000140028230     crt2.o
 0003:00000231       __isVCLPackage             0000000140028231     crt2.o
 0003:00000232       .weak.__isGUI.default.WinMainCRTStartup 0000000140028232     crt2.o
 0003:00000233       __mingw_module_is_dll      0000000140028233     crt2.o
 0003:0000025c       .weak._use_delphi.default.__System__GetTls 000000014002825c     crtbegin.o
 0003:00000260       _ZN7Sysinit11ModuleIsLibE  0000000140028260     sysinit.o
 0003:00000264       _ZN7Sysinit15ModuleIsPackageE 0000000140028264     sysinit.o
 0003:00000268       _ZN7Sysinit11ModuleIsCppE  0000000140028268     sysinit.o
 0003:00000270       _ZN7Sysinit9HInstanceE     0000000140028270     sysinit.o
 0003:00000288       _ZN7Sysinit7DllProcE       0000000140028288     sysinit.o
 0003:00000290       _ZN7Sysinit19dbkFCallWrapperAddrE 0000000140028290     sysinit.o
 0003:00000298       _ZN7Sysinit19@_pfnDliNotifyHook2E 0000000140028298     sysinit.o
 0003:000002a0       _ZN7Sysinit20@_pfnDliFailureHook2E 00000001400282a0     sysinit.o
 0003:000002c8       Form2                      00000001400282c8     UFrmMain.o
 0003:000002d0       ServerContainer2           00000001400282d0     UServerContainer.o
 0003:000002d8       FModule                    00000001400282d8     UServerContainer.o
 0003:000002e0       FDSServer                  00000001400282e0     UServerContainer.o
 0003:00000300       __native_startup_state     0000000140028300     libmingw32:lib64_libmingw32_a-natstart.o
 0003:00000308       __native_startup_lock      0000000140028308     libmingw32:lib64_libmingw32_a-natstart.o
 0003:00000310       _dowildcard                0000000140028310     libmingw32:lib64_libmingw32_a-wildcard.o
 0003:00000314       _newmode                   0000000140028314     libmingw32:lib64_libmingw32_a-_newmode.o
 0003:00000318       _tls_index                 0000000140028318     libmingw32:lib64_libmingw32_a-tlssup.o
 0003:0000031c       __mingw_initltsdrot_force  000000014002831c     libmingw32:lib64_libmingw32_a-tlssup.o
 0003:00000320       __mingw_initltsdyn_force   0000000140028320     libmingw32:lib64_libmingw32_a-tlssup.o
 0003:00000324       __mingw_initltssuo_force   0000000140028324     libmingw32:lib64_libmingw32_a-tlssup.o
 0003:00000328       _commode                   0000000140028328     libmingw32:lib64_libmingw32_a-xncommod.o
 0003:0000032c       __mingw_app_type           000000014002832c     libmingw32:lib64_libmingw32_a-mingw_helpers.o
 0003:00000350       _fmode                     0000000140028350     libmingw32:lib64_libmingw32_a-xtxtmode.o
 0003:00000358       __mingw_oldexcpt_handler   0000000140028358     libmingw32:lib64_libmingw32_a-crt_handler.o
 0003:00000360       _hInstance                 0000000140028360     libmingw32:lib64_libmingw32_a-hinstance.o
 0003:000003e0       ARC_LOG_PROC               00000001400283e0     rtle:syssupp.o
 0003:00000400       _ZGVZN6System11AnsiStringTILt0EED1EvE13__force_inst1 0000000140028400     rtle:ustring.o
 0003:00000408       _ZGVZN6System11AnsiStringTILt0EED1EvE13__force_inst2 0000000140028408     rtle:ustring.o
 0003:00000410       _ZZN6System11AnsiStringTILt0EED1EvE13__force_inst1 0000000140028410     rtle:ustring.o
 0003:00000418       _ZZN6System11AnsiStringTILt0EED1EvE13__force_inst2 0000000140028418     rtle:ustring.o
 0006:00000000       __EMBT_INIT_LIST_BEGIN__   000000014002c000     _initd.o
 0006:00000008       __ptr.__si_init_record_Sysinit 000000014002c008     _initd.o
 0006:00000010       __ptr.__init_record_System 000000014002c010     _initd.o
 0006:00000018       __ptr.__init_record_System_Typinfo 000000014002c018     _initd.o
 0006:00000020       __ptr.__init_record_Idsockethandle 000000014002c020     _initd.o
 0006:00000028       __ptr.__init_record_Idtcpconnection 000000014002c028     _initd.o
 0006:00000030       __ptr.__init_record_Idheaderlist 000000014002c030     _initd.o
 0006:00000038       __ptr.__init_record_System_Types 000000014002c038     _initd.o
 0006:00000040       __ptr.__init_record_System_Generics_Defaults 000000014002c040     _initd.o
 0006:00000048       __ptr.__init_record_System_Generics_Collections 000000014002c048     _initd.o
 0006:00000050       __ptr.__init_record_System_Netencoding 000000014002c050     _initd.o
 0006:00000058       __ptr.__init_record_System_Math 000000014002c058     _initd.o
 0006:00000060       __ptr.__init_record_Idcharsets 000000014002c060     _initd.o
 0006:00000068       __ptr.__init_record_Idstream 000000014002c068     _initd.o
 0006:00000070       __ptr.__init_record_Idcookie 000000014002c070     _initd.o
 0006:00000078       __ptr.__init_record_Idglobalprotocols 000000014002c078     _initd.o
 0006:00000080       __ptr.__init_record_Idglobal 000000014002c080     _initd.o
 0006:00000088       __ptr.__init_record_Idhttpheaderinfo 000000014002c088     _initd.o
 0006:00000090       __ptr.__init_record_Idbuffer 000000014002c090     _initd.o
 0006:00000098       __ptr.__init_record_Idresourcestringsprotocols 000000014002c098     _initd.o
 0006:000000a0       __ptr.__init_record_Idbasecomponent 000000014002c0a0     _initd.o
 0006:000000a8       __ptr.__init_record_Idcomponent 000000014002c0a8     _initd.o
 0006:000000b0       __ptr.__init_record_Idcustomtcpserver 000000014002c0b0     _initd.o
 0006:000000b8       __ptr.__init_record_Web_Webreq 000000014002c0b8     _initd.o
 0006:000000c0       __ptr.__init_record_Idiohandlersocket 000000014002c0c0     _initd.o
 0006:000000c8       __ptr.__init_record_Idtcpserver 000000014002c0c8     _initd.o
 0006:000000d0       __ptr.__init_record_Idexception 000000014002c0d0     _initd.o
 0006:000000d8       __ptr.__init_record_Idcustomhttpserver 000000014002c0d8     _initd.o
 0006:000000e0       __ptr.__init_record_Idcontext 000000014002c0e0     _initd.o
 0006:000000e8       __ptr.__init_record_System_Sysutils 000000014002c0e8     _initd.o
 0006:000000f0       __ptr.__init_record_Web_Httpapp 000000014002c0f0     _initd.o
 0006:000000f8       __ptr.__init_record_System_Classes 000000014002c0f8     _initd.o
 0006:00000100       __ptr.__init_record_Idhttpwebbrokerbridge 000000014002c100     _initd.o
 0006:00000108       __ptr.__init_record_Data_Dbxdatasnap 000000014002c108     _initd.o
 0006:00000110       __ptr.__init_record_Ippeercommon 000000014002c110     _initd.o
 0006:00000118       __ptr.__init_record_Ippeerserver 000000014002c118     _initd.o
 0006:00000120       __ptr.__init_record_Vcl_Forms 000000014002c120     _initd.o
 0006:00000128       __ptr.__init_record_Vcl_Controls 000000014002c128     _initd.o
 0006:00000130       __ptr.__init_record_Datasnap_Dssession 000000014002c130     _initd.o
 0006:00000138       __ptr.__init_record_Vcl_Stdctrls 000000014002c138     _initd.o
 0006:00000140       __ptr.__init_record_Vcl_Appevnts 000000014002c140     _initd.o
 0006:00000148       __ptr.__init_record_Datasnap_Dsserver 000000014002c148     _initd.o
 0006:00000150       __ptr.__init_record_System_Strutils 000000014002c150     _initd.o
 0006:00000158       __ptr.__init_record_Datasnap_Dshttpwebbroker 000000014002c158     _initd.o
 0006:00000160       __ptr.__wd_init_record_System_Internal_Strhlpr 000000014002c160     _initd.o
 0006:00000168       __ptr.__init_record_System_Syncobjs 000000014002c168     _initd.o
 0006:00000170       __ptr.__init_record_System_Sysconst 000000014002c170     _initd.o
 0006:00000178       __ptr.__init_record_System_Ansistrings 000000014002c178     _initd.o
 0006:00000180       __EMBT_INIT_LIST_END__     000000014002c180     _initd.o
 0008:00000000       __si_init_record_Sysinit   000000014002e000     sysinit.o
 0008:00000058       __wd_init_record_System_Internal_Strhlpr 000000014002e058     rtl:System.Internal.StrHlpr.o
 0008:000000b0       __init_record_Idhttpwebbrokerbridge 000000014002e0b0     IdHTTPWebBrokerBridge.o
 0008:00000108       __wd_init_record_System_Internal_Initcpp 000000014002e108     rtl:System.Internal.InitCPP.o
 0009:00000000       _tls_start                 000000014002f000     libmingw32:lib64_libmingw32_a-tlssup.o
 0009:00000220       _tls_end                   000000014002f220     libmingw32:lib64_libmingw32_a-tlssup.o
 0009:00000228       _ZN7Sysinit7TlsLastE       000000014002f228     sysinit.o

 entry point at         0001:00000100

 Static symbols

 0001:00000000       pre_c_init                 0000000140001000     crt2.o
 0001:000000b0       pre_cpp_init               00000001400010b0     crt2.o
 0001:0000010c       .l_startw                  000000014000110c     crt2.o
 0001:00000123       .l_endw                    0000000140001123     crt2.o
 0001:00000130       __tmainCRTStartup          0000000140001130     crt2.o
 0001:0000035c       .l_start                   000000014000135c     crt2.o
 0001:00000373       .l_end                     0000000140001373     crt2.o
 0001:000003b0       check_managed_app          00000001400013b0     crt2.o
 0001:00000510       __mingw_invalidParameterHandler 0000000140001510     crt2.o
 0001:00000540       duplicate_ppstrings        0000000140001540     crt2.o
 0001:00000a50       .text.delayhlp             0000000140001a50     sysinit.o
 0001:00001540       _ZN7Sysinit18ShutdownDelayHelp2Ev 0000000140002540     sysinit.o
 0001:000018a0       _ZN7Sysinit19InterlockedExchangeERii 00000001400028a0     sysinit.o
 0001:000018b0       _ZN7Sysinit26InterlockedExchangePointerERPvS0_ 00000001400028b0     sysinit.o
 0001:000018c0       _ZN7Sysinit14AllocTlsBufferEi 00000001400028c0     sysinit.o
 0001:000018e0       _ZN7Sysinit10GetTlsSizeEv  00000001400028e0     sysinit.o
 0001:000018f0       _ZN7Sysinit13InitThreadTLSEv 00000001400028f0     sysinit.o
 0001:00001940       _ZN7Sysinit14InitProcessTLSEv 0000000140002940     sysinit.o
 0001:00001980       _ZN7Sysinit13ExitThreadTLSEv 0000000140002980     sysinit.o
 0001:000019d0       _ZN7Sysinit14ExitProcessTLSEv 00000001400029d0     sysinit.o
 0001:00001a00       _ZN7Sysinit6isWineEv       0000000140002a00     sysinit.o
 0001:00001a60       _ZN7Sysinit16InitializeModuleEv 0000000140002a60     sysinit.o
 0001:00001a80       _ZN7Sysinit18UninitializeModuleEv 0000000140002a80     sysinit.o
 0001:00001ac0       _ZN7Sysinit14__dbkDummyProcEv 0000000140002ac0     sysinit.o
 0001:00001ad0       _ZN7Sysinit14__dbkFCallArgsEPvS0_S0_S0_S0_S0_S0_S0_S0_S0_S0_S0_S0_S0_S0_S0_S0_S0_S0_S0_S0_S0_S0_S0_S0_S0_S0_S0_S0_S0_ 0000000140002ad0     sysinit.o
 0001:00001ed0       _ZN7Sysinit19__dbk_fcall_wrapperEv 0000000140002ed0     sysinit.o
 0001:000028b0       _ZL13freeContainerv        00000001400038b0     UServerContainer.o
 0001:00002b10       _ZL14freeWebModulesv       0000000140003b10     UWebModuleMain.o
 0001:00003330       __dyn_tls_dtor             0000000140004330     libmingw32:lib64_libmingw32_a-tlssup.o
 0001:00003560       do_pseudo_reloc            0000000140004560     libmingw32:lib64_libmingw32_a-pseudo-reloc.o
 0001:000039e0       restore_modified_sections  00000001400049e0     libmingw32:lib64_libmingw32_a-pseudo-reloc.o
 0001:00003a80       __write_memory             0000000140004a80     libmingw32:lib64_libmingw32_a-pseudo-reloc.o
 0001:00003ad0       __report_error             0000000140004ad0     libmingw32:lib64_libmingw32_a-pseudo-reloc.o
 0001:00003b30       mark_section_writable      0000000140004b30     libmingw32:lib64_libmingw32_a-pseudo-reloc.o
 0001:00006030       __dtor__ZZN6System11AnsiStringTILt0EED1EvE13__force_inst1 0000000140007030     rtle:ustring.o
 0001:00006040       __dtor__ZZN6System11AnsiStringTILt0EED1EvE13__force_inst2 0000000140007040     rtle:ustring.o
 0001:000063ea       @@NoAlloc                  00000001400073ea     rtle:classcre64.o
 0001:000063ff       @@outerMost                00000001400073ff     rtle:classcre64.o
 0001:00006740       __mingwthr_run_key_dtors   0000000140007740     libmingw32:lib64_libmingw32_a-tlsthrd.o
 0001:000072e0       __dtor__ZZ18__delphi_type_infoE13type_info_map 00000001400082e0     rtle:syssupp.o
 0001:00009d80       __dtor__ZZN6System11AnsiStringTILt0EED1EvE13__force_inst1 000000014000ad80     rtle:dstring.o
 0001:00009d90       __dtor__ZZN6System11AnsiStringTILt0EED1EvE13__force_inst2 000000014000ad90     rtle:dstring.o
 0001:0000e270       _ZZN21Idhttpwebbrokerbridge18TIdHTTPAppResponse15GetDateVariableEiE5ToGMTPvN6System9TDateTimeE 000000014000f270     IdHTTPWebBrokerBridge.o
 0001:0000e2a0       _ZZN21Idhttpwebbrokerbridge18TIdHTTPAppResponse15SetDateVariableEiN6System9TDateTimeEE7ToLocalPvS2_ 000000014000f2a0     IdHTTPWebBrokerBridge.o
 0001:0000e2d0       _ZN21Idhttpwebbrokerbridge12DoHTTPEncodeEN6System13UnicodeStringE 000000014000f2d0     IdHTTPWebBrokerBridge.o
 0001:0000e300       _ZN21Idhttpwebbrokerbridge36TIdHTTPWebBrokerBridgeRequestHandler3RunEPN9Idcontext10TIdContextEPN18Idcustomhttpserver18TIdHTTPRequestInfoEPNS4_19TIdHTTPResponseInfoE 000000014000f300     IdHTTPWebBrokerBridge.o
 0001:0000e460       _ZN21Idhttpwebbrokerbridge36TIdHTTPWebBrokerBridgeRequestHandlerC3EPN6System7Classes10TComponentE 000000014000f460     IdHTTPWebBrokerBridge.o
 0001:0000e520       _ZN21Idhttpwebbrokerbridge36TIdHTTPWebBrokerBridgeRequestHandlerD0Ev 000000014000f520     IdHTTPWebBrokerBridge.o
 0001:0000e570       _ZN21Idhttpwebbrokerbridge35IdHTTPWebBrokerBridgeRequestHandlerEv 000000014000f570     IdHTTPWebBrokerBridge.o
 0001:0000e5a8       _ZN6System8Generics8Defaults12TComparer__1IPNS_7Classes15TCollectionItemEEv04IntfE 000000014000f5a8     IdHTTPWebBrokerBridge.o
 0001:0000e628       _ZN6System8Generics11Collections24@TList__1_Pack_1__ActRecIPNS_7Classes15TCollectionItemEEv04IntfE 000000014000f628     IdHTTPWebBrokerBridge.o
 0001:0000e6a8       _ZN6System8Generics11Collections24@TList__1_Pack_0__ActRecIPNS_7Classes15TCollectionItemEEv04IntfE 000000014000f6a8     IdHTTPWebBrokerBridge.o
 0001:0000e730       _ZL11init_delphiv          000000014000f730     libmingw32:lib64_libmingw32_a-start_delphi.o
 0001:0000e830       _ZL10fini_unitsv           000000014000f830     libmingw32:lib64_libmingw32_a-start_delphi.o
 0001:0000e880       _ZL11fini_delphiv          000000014000f880     libmingw32:lib64_libmingw32_a-start_delphi.o
 0001:0000e890       _ZL13hook_delphiehv        000000014000f890     libmingw32:lib64_libmingw32_a-start_delphi.o
 0001:0000e8a0       _ZL13hook_delphimmv        000000014000f8a0     libmingw32:lib64_libmingw32_a-start_delphi.o
 0001:0000ed70       _ZN6System8Internal7Initcpp23SelectForInitializationEPNS1_20TUnitDescriptorBlockES3_ 000000014000fd70     rtl:System.Internal.InitCPP.o
 0001:0000ed90       _ZN6System8Internal7Initcpp23SelectForInitializationEPPNS1_20TUnitDescriptorBlockES4_ 000000014000fd90     rtl:System.Internal.InitCPP.o
 0001:0000edc0       _ZN6System8Internal7Initcpp16FinalizeUnitListEPPPNS1_15TUnitDescriptorES5_ 000000014000fdc0     rtl:System.Internal.InitCPP.o
 0001:0000ee70       _ZL13eh_push_frameP17_EXCEPTION_RECORD 000000014000fe70     libmingw32:lib64_libmingw32_a-hook_delphieh.o
 0001:0000ef30       _ZL12eh_pop_framev         000000014000ff30     libmingw32:lib64_libmingw32_a-hook_delphieh.o
 0001:0000f010       _ZL17eh_get_except_objv    0000000140010010     libmingw32:lib64_libmingw32_a-hook_delphieh.o
 0001:0000f020       _ZTWL16exception_object    0000000140010020     libmingw32:lib64_libmingw32_a-hook_delphieh.o
 0002:000004bc       _ZTRN7Sysinit6PDWORDE      00000001400134bc     sysinit.o
 0002:000004d8       _ZTRZN7Sysinit17_DelayLoadHelper2ERPvS0_E20TDelayLoadHelperProc 00000001400134d8     sysinit.o
 0002:00000540       _ZTRZN7Sysinit7_GetTlsEvE14PPPointerArray 0000000140013540     sysinit.o
 0002:00000562       _ZN7Sysinit17_comment_delayhlpE 0000000140013562     sysinit.o
 0002:000005c5       _ZN7Sysinit24_note_delayhlp_GNU-stackE 00000001400135c5     sysinit.o
 0002:000005c8       __imp__ZN6System9IsLibraryE 00000001400135c8     sysinit.o
 0002:000005d0       __imp__ZN6System7CmdLineE  00000001400135d0     sysinit.o
 0002:000005d8       __imp__ZN6System9IsConsoleE 00000001400135d8     sysinit.o
 0002:000005e0       __imp__ZN6System8ExitProcE 00000001400135e0     sysinit.o
 0002:00001c3f       _ZNSt3__1L19piecewise_constructE 0000000140014c3f     rtle:syssupp.o
 0002:00006018       _ZTVN21Idhttpwebbrokerbridge20TWebDispatcherAccessE 0000000140019018     IdHTTPWebBrokerBridge.o
 0002:0000619c       _ZTRN21Idhttpwebbrokerbridge20TWebDispatcherAccessE 000000014001919c     IdHTTPWebBrokerBridge.o
 0002:000061f0       _ZTVN21Idhttpwebbrokerbridge36TIdHTTPWebBrokerBridgeRequestHandlerE 00000001400191f0     IdHTTPWebBrokerBridge.o
 0002:0000648c       _ZTRN21Idhttpwebbrokerbridge36TIdHTTPWebBrokerBridgeRequestHandlerE 000000014001948c     IdHTTPWebBrokerBridge.o
 0002:000064ec       _ZTRZN6System8Generics11Collections8TList__1IPNS_7Classes15TCollectionItemEE12UpdateNotifyEvE2_1 00000001400194ec     IdHTTPWebBrokerBridge.o
 0002:00006578       _ZTRN21IdhttpwebbrokerbridgeZN6System8Generics11Collections8TList__1IPNS0_7Classes15TCollectionItemEE12UpdateNotifyEvE2_2IS6_EE 0000000140019578     IdHTTPWebBrokerBridge.o
 0002:00006674       __imp__ZN6System7Typinfo18GetRecCompareAddrsE 0000000140019674     IdHTTPWebBrokerBridge.o
 0002:0000667c       __imp__ZN26Idresourcestringsprotocols31_RSWBBInvalidIdxGetDateVariableE 000000014001967c     IdHTTPWebBrokerBridge.o
 0002:00006684       __imp__ZN26Idresourcestringsprotocols31_RSWBBInvalidIdxSetDateVariableE 0000000140019684     IdHTTPWebBrokerBridge.o
 0002:0000668c       __imp__ZN26Idresourcestringsprotocols30_RSWBBInvalidIdxGetIntVariableE 000000014001968c     IdHTTPWebBrokerBridge.o
 0002:00006694       __imp__ZN26Idresourcestringsprotocols30_RSWBBInvalidIdxSetIntVariableE 0000000140019694     IdHTTPWebBrokerBridge.o
 0002:0000669c       __imp__ZN26Idresourcestringsprotocols30_RSWBBInvalidIdxGetStrVariableE 000000014001969c     IdHTTPWebBrokerBridge.o
 0002:000066a4       __imp__ZN26Idresourcestringsprotocols22_RSWBBInvalidStringVarE 00000001400196a4     IdHTTPWebBrokerBridge.o
 0002:000066ac       __imp__ZN26Idresourcestringsprotocols28_RSWBBInvalidIdxSetStringVarE 00000001400196ac     IdHTTPWebBrokerBridge.o
 0002:000066b4       __imp__ZN3Web6Webreq21WebRequestHandlerProcE 00000001400196b4     IdHTTPWebBrokerBridge.o
 0002:000066bc       __imp__ZN6System8Sysutils18GrowCollectionFuncE 00000001400196bc     IdHTTPWebBrokerBridge.o
 0002:000066c4       __imp__ZN6System7Classes26ApplicationHandleExceptionE 00000001400196c4     IdHTTPWebBrokerBridge.o
 0002:00006a74       _ZTRN6System8Internal7Initcpp5TProcE 0000000140019a74     rtl:System.Internal.InitCPP.o
 0002:00006b98       __xd_a                     0000000140019b98     libmingw32:lib64_libmingw32_a-tlssup.o
 0002:00006ba0       __xd_z                     0000000140019ba0     libmingw32:lib64_libmingw32_a-tlssup.o
 0002:00012248       $unwind$_ZN7Sysinit19InterlockedExchangeERii 0000000140025248     sysinit.o
 0002:0001224c       $unwind$_ZN7Sysinit26InterlockedExchangePointerERPvS0_ 000000014002524c     sysinit.o
 0002:00012250       $unwind$_ZN7Sysinit17SetDliNotifyHook2EPFPv15dliNotificationP13DelayLoadInfoE 0000000140025250     sysinit.o
 0002:00012254       $unwind$_ZN7Sysinit14DliNotifyHook2Ev 0000000140025254     sysinit.o
 0002:00012258       $unwind$_ZN7Sysinit18SetDliFailureHook2EPFPv15dliNotificationP13DelayLoadInfoE 0000000140025258     sysinit.o
 0002:0001225c       $unwind$_ZN7Sysinit15DliFailureHook2Ev 000000014002525c     sysinit.o
 0002:00012260       $unwind$_ZN7Sysinit17_DelayLoadHelper2ERPvS0_ 0000000140025260     sysinit.o
 0002:00012268       $unwind$_ZN7Sysinit21UnloadDelayLoadedDLL2EPc 0000000140025268     sysinit.o
 0002:0001226c       $unwind$_ZN7Sysinit20LoadAllImportsForDllEPc 000000014002526c     sysinit.o
 0002:00012270       $unwind$_ZN7Sysinit14AllocTlsBufferEi 0000000140025270     sysinit.o
 0002:00012278       $unwind$_ZN7Sysinit10GetTlsSizeEv 0000000140025278     sysinit.o
 0002:0001227c       $unwind$_ZN7Sysinit13InitThreadTLSEv 000000014002527c     sysinit.o
 0002:00012284       $unwind$_ZN7Sysinit14InitProcessTLSEv 0000000140025284     sysinit.o
 0002:0001228c       $unwind$_ZN7Sysinit13ExitThreadTLSEv 000000014002528c     sysinit.o
 0002:00012294       $unwind$_ZN7Sysinit14ExitProcessTLSEv 0000000140025294     sysinit.o
 0002:0001229c       $unwind$_ZN7Sysinit6isWineEv 000000014002529c     sysinit.o
 0002:000122a4       $unwind$_ZN7Sysinit7_GetTlsEv 00000001400252a4     sysinit.o
 0002:000122ac       $unwind$_ZN7Sysinit16InitializeModuleEv 00000001400252ac     sysinit.o
 0002:000122b4       $unwind$_ZN7Sysinit18UninitializeModuleEv 00000001400252b4     sysinit.o
 0002:000122bc       $unwind$_ZN7Sysinit7VclInitEbbyb 00000001400252bc     sysinit.o
 0002:000122cc       $unwind$_ZN7Sysinit7VclExitEv 00000001400252cc     sysinit.o
 0002:000122d4       $unwind$_ZN7Sysinit14__dbkDummyProcEv 00000001400252d4     sysinit.o
 0002:000122d8       $unwind$_ZN7Sysinit14__dbkFCallArgsEPvS0_S0_S0_S0_S0_S0_S0_S0_S0_S0_S0_S0_S0_S0_S0_S0_S0_S0_S0_S0_S0_S0_S0_S0_S0_S0_S0_S0_S0_ 00000001400252d8     sysinit.o
 0002:000122e0       $unwind$_ZN7Sysinit19__dbk_fcall_wrapperEv 00000001400252e0     sysinit.o
 0002:0001231c       $unwind$_ZN7Sysinit8_InitPkgEyiPv 000000014002531c     sysinit.o
 0002:00012328       $unwind$_ZN7Sysinit12_PackageLoadEPN6System16PackageInfoTableE 0000000140025328     sysinit.o
 0002:00012330       $unwind$_ZN7Sysinit14_PackageUnloadEPN6System16PackageInfoTableE 0000000140025330     sysinit.o
 0002:00012338       $unwind$_ZN7Sysinit8_InitLibEPN6System12TInitContextEPNS0_16PackageInfoTableEyjPv 0000000140025338     sysinit.o
 0002:00012348       $unwind$_ZN7Sysinit8_InitExeEPv 0000000140025348     sysinit.o
 0002:00012350       $unwind$delayhlp           0000000140025350     sysinit.o
 0002:000123b0       $unwind$_ZN7Sysinit12FinalizationEv 00000001400253b0     sysinit.o
 0002:000123b8       $unwind$_ZN7Sysinit14initializationEv 00000001400253b8     sysinit.o
 0002:000123c8       GCC_except_table0          00000001400253c8     DemoStandalone.o
 0002:00012420       GCC_except_table3          0000000140025420     UFrmMain.o
 0002:00012448       GCC_except_table6          0000000140025448     UFrmMain.o
 0002:000124fc       GCC_except_table1          00000001400254fc     UServerMethod.o
 0002:00012520       GCC_except_table2          0000000140025520     UServerMethod.o
 0002:00012554       GCC_except_table1          0000000140025554     UWebModuleMain.o
 0002:0001267c       GCC_except_table3          000000014002567c     rtle:ustring.o
 0002:000126e8       GCC_except_table15         00000001400256e8     rtle:ustring.o
 0002:00012708       GCC_except_table17         0000000140025708     rtle:ustring.o
 0002:00012730       GCC_except_table18         0000000140025730     rtle:ustring.o
 0002:00012764       GCC_except_table22         0000000140025764     rtle:ustring.o
 0002:000127c4       GCC_except_table31         00000001400257c4     rtle:ustring.o
 0002:000127fc       GCC_except_table33         00000001400257fc     rtle:ustring.o
 0002:00012988       GCC_except_table78         0000000140025988     rtle:ustring.o
 0002:000129c0       GCC_except_table79         00000001400259c0     rtle:ustring.o
 0002:000129fc       GCC_except_table80         00000001400259fc     rtle:ustring.o
 0002:00012a38       GCC_except_table81         0000000140025a38     rtle:ustring.o
 0002:00012a7c       GCC_except_table87         0000000140025a7c     rtle:ustring.o
 0002:00012aa8       GCC_except_table88         0000000140025aa8     rtle:ustring.o
 0002:00012adc       GCC_except_table89         0000000140025adc     rtle:ustring.o
 0002:00012b08       GCC_except_table90         0000000140025b08     rtle:ustring.o
 0002:00012b34       GCC_except_table91         0000000140025b34     rtle:ustring.o
 0002:00012b60       GCC_except_table92         0000000140025b60     rtle:ustring.o
 0002:00012b8c       GCC_except_table93         0000000140025b8c     rtle:ustring.o
 0002:00012bb8       GCC_except_table94         0000000140025bb8     rtle:ustring.o
 0002:00012be4       GCC_except_table95         0000000140025be4     rtle:ustring.o
 0002:00012c10       GCC_except_table96         0000000140025c10     rtle:ustring.o
 0002:00012c3c       GCC_except_table97         0000000140025c3c     rtle:ustring.o
 0002:00012c68       GCC_except_table98         0000000140025c68     rtle:ustring.o
 0002:00012c94       GCC_except_table99         0000000140025c94     rtle:ustring.o
 0002:00012cc0       GCC_except_table100        0000000140025cc0     rtle:ustring.o
 0002:00012cec       GCC_except_table101        0000000140025cec     rtle:ustring.o
 0002:00012d18       GCC_except_table102        0000000140025d18     rtle:ustring.o
 0002:00012d44       GCC_except_table103        0000000140025d44     rtle:ustring.o
 0002:00012d70       GCC_except_table104        0000000140025d70     rtle:ustring.o
 0002:00012d9c       GCC_except_table105        0000000140025d9c     rtle:ustring.o
 0002:00012dc8       GCC_except_table4          0000000140025dc8     rtle:ustring.o
 0002:00012dfc       GCC_except_table16         0000000140025dfc     rtle:ustring.o
 0002:00012e20       GCC_except_table113        0000000140025e20     rtle:ustring.o
 0002:00012e6c       GCC_except_table114        0000000140025e6c     rtle:ustring.o
 0002:0001302c       GCC_except_table5          000000014002602c     rtle:syssupp.o
 0002:00013100       GCC_except_table27         0000000140026100     rtle:syssupp.o
 0002:00013178       $unwind$_ZN6System8Internal7Strhlpr15UnicodeFromAnsiERNS_13UnicodeStringERNS_11AnsiStringTILt65535EEE 0000000140026178     rtl:System.Internal.StrHlpr.o
 0002:00013180       $unwind$_ZN6System8Internal7Strhlpr16UnicodeFromPCharERNS_13UnicodeStringEPcb 0000000140026180     rtl:System.Internal.StrHlpr.o
 0002:000131b0       $unwind$_ZN6System8Internal7Strhlpr15UnicodeFromUTF8ERNS_13UnicodeStringEPKc 00000001400261b0     rtl:System.Internal.StrHlpr.o
 0002:000131b8       $unwind$_ZN6System8Internal7Strhlpr20UnicodeFromPWideCharERNS_13UnicodeStringEPw 00000001400261b8     rtl:System.Internal.StrHlpr.o
 0002:000131c0       $unwind$_ZN6System8Internal7Strhlpr13UnicodeAppendERNS_13UnicodeStringES3_ 00000001400261c0     rtl:System.Internal.StrHlpr.o
 0002:000131c8       $unwind$_ZN6System8Internal7Strhlpr10UnicodeCatERNS_13UnicodeStringES3_ 00000001400261c8     rtl:System.Internal.StrHlpr.o
 0002:000131d0       $unwind$_ZN6System8Internal7Strhlpr13UnicodeDeleteERNS_13UnicodeStringEii 00000001400261d0     rtl:System.Internal.StrHlpr.o
 0002:000131d8       $unwind$_ZN6System8Internal7Strhlpr16UnicodeSetLengthERNS_13UnicodeStringEi 00000001400261d8     rtl:System.Internal.StrHlpr.o
 0002:000131e0       $unwind$_ZN6System8Internal7Strhlpr10UnicodePosERNS_13UnicodeStringES3_ 00000001400261e0     rtl:System.Internal.StrHlpr.o
 0002:000131e8       $unwind$_ZN6System8Internal7Strhlpr11UnicodeCopyERNS_13UnicodeStringEii 00000001400261e8     rtl:System.Internal.StrHlpr.o
 0002:000131f0       $unwind$_ZN6System8Internal7Strhlpr13UnicodeInsertERNS_13UnicodeStringES3_i 00000001400261f0     rtl:System.Internal.StrHlpr.o
 0002:000131f8       $unwind$_ZN6System8Internal7Strhlpr13UnicodeAssignERNS_13UnicodeStringES3_ 00000001400261f8     rtl:System.Internal.StrHlpr.o
 0002:00013200       $unwind$_ZN6System8Internal7Strhlpr11UnicodeFreeERNS_13UnicodeStringE 0000000140026200     rtl:System.Internal.StrHlpr.o
 0002:00013208       $unwind$_ZN6System8Internal7Strhlpr12UnicodeEqualERNS_13UnicodeStringES3_ 0000000140026208     rtl:System.Internal.StrHlpr.o
 0002:00013210       $unwind$_ZN6System8Internal7Strhlpr11UnicodeLessERNS_13UnicodeStringES3_ 0000000140026210     rtl:System.Internal.StrHlpr.o
 0002:00013218       $unwind$_ZN6System8Internal7Strhlpr14UnicodeGreaterERNS_13UnicodeStringES3_ 0000000140026218     rtl:System.Internal.StrHlpr.o
 0002:00013220       $unwind$_ZN6System8Internal7Strhlpr10AnsiAppendERNS_11AnsiStringTILt65535EEES4_ 0000000140026220     rtl:System.Internal.StrHlpr.o
 0002:00013228       $unwind$_ZN6System8Internal7Strhlpr7AnsiCatERNS_11AnsiStringTILt65535EEES4_ 0000000140026228     rtl:System.Internal.StrHlpr.o
 0002:00013230       $unwind$_ZN6System8Internal7Strhlpr10AnsiDeleteERNS_11AnsiStringTILt65535EEEii 0000000140026230     rtl:System.Internal.StrHlpr.o
 0002:00013238       $unwind$_ZN6System8Internal7Strhlpr13AnsiSetLengthERNS_11AnsiStringTILt65535EEEi 0000000140026238     rtl:System.Internal.StrHlpr.o
 0002:00013240       $unwind$_ZN6System8Internal7Strhlpr7AnsiPosERNS_11AnsiStringTILt65535EEES4_ 0000000140026240     rtl:System.Internal.StrHlpr.o
 0002:00013248       $unwind$_ZN6System8Internal7Strhlpr8AnsiCopyERNS_11AnsiStringTILt65535EEEii 0000000140026248     rtl:System.Internal.StrHlpr.o
 0002:00013250       $unwind$_ZN6System8Internal7Strhlpr10AnsiInsertERNS_11AnsiStringTILt65535EEES4_i 0000000140026250     rtl:System.Internal.StrHlpr.o
 0002:00013258       $unwind$_ZN6System8Internal7Strhlpr9AnsiEqualERNS_11AnsiStringTILt65535EEES4_ 0000000140026258     rtl:System.Internal.StrHlpr.o
 0002:00013260       $unwind$_ZN6System8Internal7Strhlpr11AnsiGreaterERNS_11AnsiStringTILt65535EEES4_ 0000000140026260     rtl:System.Internal.StrHlpr.o
 0002:00013268       $unwind$_ZN6System8Internal7Strhlpr8AnsiLessERNS_11AnsiStringTILt65535EEES4_ 0000000140026268     rtl:System.Internal.StrHlpr.o
 0002:00013270       $unwind$_ZN6System8Internal7Strhlpr10AnsiAssignERNS_11AnsiStringTILt65535EEES4_ 0000000140026270     rtl:System.Internal.StrHlpr.o
 0002:00013278       $unwind$_ZN6System8Internal7Strhlpr8AnsiFreeERNS_11AnsiStringTILt65535EEE 0000000140026278     rtl:System.Internal.StrHlpr.o
 0002:00013280       $unwind$_ZN6System8Internal7Strhlpr10WideAssignERNS_10WideStringES3_ 0000000140026280     rtl:System.Internal.StrHlpr.o
 0002:00013288       $unwind$_ZN6System8Internal7Strhlpr8WideFreeERNS_10WideStringE 0000000140026288     rtl:System.Internal.StrHlpr.o
 0002:00013290       $unwind$_ZN6System8Internal7Strhlpr12WideFromAnsiERNS_10WideStringERNS_11AnsiStringTILt65535EEE 0000000140026290     rtl:System.Internal.StrHlpr.o
 0002:00013298       $unwind$_ZN6System8Internal7Strhlpr15WideFromUnicodeERNS_10WideStringERNS_13UnicodeStringE 0000000140026298     rtl:System.Internal.StrHlpr.o
 0002:000132a0       $unwind$_ZN6System8Internal7Strhlpr13WideFromPCharERNS_10WideStringEPcb 00000001400262a0     rtl:System.Internal.StrHlpr.o
 0002:000132d0       $unwind$_ZN6System8Internal7Strhlpr9WideEqualERNS_10WideStringES3_ 00000001400262d0     rtl:System.Internal.StrHlpr.o
 0002:000132d8       $unwind$_ZN6System8Internal7Strhlpr8WideLessERNS_10WideStringES3_ 00000001400262d8     rtl:System.Internal.StrHlpr.o
 0002:000132e0       $unwind$_ZN6System8Internal7Strhlpr11WideGreaterERNS_10WideStringES3_ 00000001400262e0     rtl:System.Internal.StrHlpr.o
 0002:000132e8       $unwind$_ZN6System8Internal7Strhlpr7WideCatERNS_10WideStringES3_ 00000001400262e8     rtl:System.Internal.StrHlpr.o
 0002:000132f0       $unwind$_ZN6System8Internal7Strhlpr10WideLengthERNS_10WideStringE 00000001400262f0     rtl:System.Internal.StrHlpr.o
 0002:000132f4       $unwind$_ZN6System8Internal7Strhlpr7WidePosERNS_10WideStringES3_ 00000001400262f4     rtl:System.Internal.StrHlpr.o
 0002:000132fc       $unwind$_ZN6System8Internal7Strhlpr13WideSetLengthERNS_10WideStringEi 00000001400262fc     rtl:System.Internal.StrHlpr.o
 0002:00013304       $unwind$_ZN6System8Internal7Strhlpr10WideDeleteERNS_10WideStringEii 0000000140026304     rtl:System.Internal.StrHlpr.o
 0002:0001330c       $unwind$_ZN6System8Internal7Strhlpr10WideInsertERNS_10WideStringES3_i 000000014002630c     rtl:System.Internal.StrHlpr.o
 0002:00013314       $unwind$_ZN6System8Internal7Strhlpr8WideCopyERNS_10WideStringEii 0000000140026314     rtl:System.Internal.StrHlpr.o
 0002:0001331c       $unwind$_ZN6System8Internal7Strhlpr10WideAppendERNS_10WideStringES3_ 000000014002631c     rtl:System.Internal.StrHlpr.o
 0002:00013324       $unwind$_ZN6System8Internal7Strhlpr12WideFromUTF8ERNS_10WideStringEPKc 0000000140026324     rtl:System.Internal.StrHlpr.o
 0002:00013354       $unwind$_ZN6System8Internal7Strhlpr15UnicodeFromWideERNS_13UnicodeStringERNS_10WideStringE 0000000140026354     rtl:System.Internal.StrHlpr.o
 0002:0001335c       $unwind$_ZN6System8Internal7Strhlpr12FinalizationEv 000000014002635c     rtl:System.Internal.StrHlpr.o
 0002:00013360       $unwind$_ZN6System8Internal7Strhlpr14initializationEv 0000000140026360     rtl:System.Internal.StrHlpr.o
 0002:00013374       GCC_except_table3          0000000140026374     rtle:dstring.o
 0002:000133ac       GCC_except_table15         00000001400263ac     rtle:dstring.o
 0002:000133f0       GCC_except_table18         00000001400263f0     rtle:dstring.o
 0002:00013434       GCC_except_table19         0000000140026434     rtle:dstring.o
 0002:00013470       GCC_except_table20         0000000140026470     rtle:dstring.o
 0002:000134d0       GCC_except_table30         00000001400264d0     rtle:dstring.o
 0002:000134f4       GCC_except_table32         00000001400264f4     rtle:dstring.o
 0002:00013514       GCC_except_table33         0000000140026514     rtle:dstring.o
 0002:00013548       GCC_except_table34         0000000140026548     rtle:dstring.o
 0002:00013590       GCC_except_table35         0000000140026590     rtle:dstring.o
 0002:000135b4       GCC_except_table36         00000001400265b4     rtle:dstring.o
 0002:000135d8       GCC_except_table37         00000001400265d8     rtle:dstring.o
 0002:00013634       GCC_except_table40         0000000140026634     rtle:dstring.o
 0002:0001365c       GCC_except_table41         000000014002665c     rtle:dstring.o
 0002:00013680       GCC_except_table42         0000000140026680     rtle:dstring.o
 0002:000136a8       GCC_except_table43         00000001400266a8     rtle:dstring.o
 0002:000136e8       GCC_except_table47         00000001400266e8     rtle:dstring.o
 0002:0001373c       GCC_except_table50         000000014002673c     rtle:dstring.o
 0002:00013784       GCC_except_table53         0000000140026784     rtle:dstring.o
 0002:000137a4       GCC_except_table54         00000001400267a4     rtle:dstring.o
 0002:000137c4       GCC_except_table55         00000001400267c4     rtle:dstring.o
 0002:000137e4       GCC_except_table56         00000001400267e4     rtle:dstring.o
 0002:00013804       GCC_except_table57         0000000140026804     rtle:dstring.o
 0002:00013840       GCC_except_table60         0000000140026840     rtle:dstring.o
 0002:0001385c       GCC_except_table61         000000014002685c     rtle:dstring.o
 0002:0001387c       GCC_except_table62         000000014002687c     rtle:dstring.o
 0002:000138f8       GCC_except_table4          00000001400268f8     rtle:dstring.o
 0002:00013920       GCC_except_table31         0000000140026920     rtle:dstring.o
 0002:0001394c       GCC_except_table79         000000014002694c     rtle:dstring.o
 0002:00013974       GCC_except_table80         0000000140026974     rtle:dstring.o
 0002:00013994       $unwind$_ZN21Idhttpwebbrokerbridge17TIdHTTPAppRequestC3EPN9Idcontext10TIdContextEPN18Idcustomhttpserver18TIdHTTPRequestInfoEPNS4_19TIdHTTPResponseInfoE 0000000140026994     IdHTTPWebBrokerBridge.o
 0002:000139f0       $unwind$_ZN21Idhttpwebbrokerbridge17TIdHTTPAppRequestD0Ev 00000001400269f0     IdHTTPWebBrokerBridge.o
 0002:00013a00       $unwind$_ZN21Idhttpwebbrokerbridge17TIdHTTPAppRequest15GetDateVariableEi 0000000140026a00     IdHTTPWebBrokerBridge.o
 0002:00013a30       $unwind$_ZN21Idhttpwebbrokerbridge17TIdHTTPAppRequest18GetIntegerVariableEi 0000000140026a30     IdHTTPWebBrokerBridge.o
 0002:00013a60       $unwind$_ZN21Idhttpwebbrokerbridge17TIdHTTPAppRequest14GetRawPathInfoEv 0000000140026a60     IdHTTPWebBrokerBridge.o
 0002:00013a68       $unwind$_ZN21Idhttpwebbrokerbridge17TIdHTTPAppRequest11GetRemoteIPEv 0000000140026a68     IdHTTPWebBrokerBridge.o
 0002:00013a70       $unwind$_ZN21Idhttpwebbrokerbridge17TIdHTTPAppRequest13GetRawContentEv 0000000140026a70     IdHTTPWebBrokerBridge.o
 0002:00013aa0       $unwind$_ZN21Idhttpwebbrokerbridge17TIdHTTPAppRequest17GetStringVariableEi 0000000140026aa0     IdHTTPWebBrokerBridge.o
 0002:00013b08       $unwind$_ZN21Idhttpwebbrokerbridge17TIdHTTPAppRequest14GetFieldByNameEN6System13UnicodeStringE 0000000140026b08     IdHTTPWebBrokerBridge.o
 0002:00013b10       $unwind$_ZN21Idhttpwebbrokerbridge17TIdHTTPAppRequest10ReadClientEPvi 0000000140026b10     IdHTTPWebBrokerBridge.o
 0002:00013b18       $unwind$_ZN21Idhttpwebbrokerbridge17TIdHTTPAppRequest10ReadStringEi 0000000140026b18     IdHTTPWebBrokerBridge.o
 0002:00013b48       $unwind$_ZN21Idhttpwebbrokerbridge17TIdHTTPAppRequest12TranslateURIEN6System13UnicodeStringE 0000000140026b48     IdHTTPWebBrokerBridge.o
 0002:00013b50       $unwind$_ZN21Idhttpwebbrokerbridge17TIdHTTPAppRequest12WriteHeadersEiN6System13UnicodeStringES2_ 0000000140026b50     IdHTTPWebBrokerBridge.o
 0002:00013b5c       $unwind$_ZN21Idhttpwebbrokerbridge17TIdHTTPAppRequest11WriteStringEN6System13UnicodeStringE 0000000140026b5c     IdHTTPWebBrokerBridge.o
 0002:00013b64       $unwind$_ZN21Idhttpwebbrokerbridge17TIdHTTPAppRequest11WriteClientEPvi 0000000140026b64     IdHTTPWebBrokerBridge.o
 0002:00013b94       $unwind$_ZN21Idhttpwebbrokerbridge18TIdHTTPAppResponseC3EPN3Web7Httpapp11TWebRequestEPN9Idcontext10TIdContextEPN18Idcustomhttpserver18TIdHTTPRequestInfoEPNS8_19TIdHTTPResponseInfoE 0000000140026b94     IdHTTPWebBrokerBridge.o
 0002:00013bec       $unwind$_ZN21Idhttpwebbrokerbridge18TIdHTTPAppResponse10GetContentEv 0000000140026bec     IdHTTPWebBrokerBridge.o
 0002:00013bf4       $unwind$_ZN21Idhttpwebbrokerbridge18TIdHTTPAppResponse13GetLogMessageEv 0000000140026bf4     IdHTTPWebBrokerBridge.o
 0002:00013bfc       $unwind$_ZN21Idhttpwebbrokerbridge18TIdHTTPAppResponse13GetStatusCodeEv 0000000140026bfc     IdHTTPWebBrokerBridge.o
 0002:00013c00       $unwind$_ZZN21Idhttpwebbrokerbridge18TIdHTTPAppResponse15GetDateVariableEiE5ToGMTPvN6System9TDateTimeE 0000000140026c00     IdHTTPWebBrokerBridge.o
 0002:00013c08       $unwind$_ZN21Idhttpwebbrokerbridge18TIdHTTPAppResponse15GetDateVariableEi 0000000140026c08     IdHTTPWebBrokerBridge.o
 0002:00013c38       $unwind$_ZZN21Idhttpwebbrokerbridge18TIdHTTPAppResponse15SetDateVariableEiN6System9TDateTimeEE7ToLocalPvS2_ 0000000140026c38     IdHTTPWebBrokerBridge.o
 0002:00013c40       $unwind$_ZN21Idhttpwebbrokerbridge18TIdHTTPAppResponse15SetDateVariableEiN6System9TDateTimeE 0000000140026c40     IdHTTPWebBrokerBridge.o
 0002:00013c70       $unwind$_ZN21Idhttpwebbrokerbridge18TIdHTTPAppResponse18GetIntegerVariableEi 0000000140026c70     IdHTTPWebBrokerBridge.o
 0002:00013ca0       $unwind$_ZN21Idhttpwebbrokerbridge18TIdHTTPAppResponse18SetIntegerVariableEix 0000000140026ca0     IdHTTPWebBrokerBridge.o
 0002:00013cd0       $unwind$_ZN21Idhttpwebbrokerbridge18TIdHTTPAppResponse17GetStringVariableEi 0000000140026cd0     IdHTTPWebBrokerBridge.o
 0002:00013d00       $unwind$_ZN21Idhttpwebbrokerbridge18TIdHTTPAppResponse17SetStringVariableEiN6System13UnicodeStringE 0000000140026d00     IdHTTPWebBrokerBridge.o
 0002:00013d34       $unwind$_ZN21Idhttpwebbrokerbridge18TIdHTTPAppResponse12SendRedirectEN6System13UnicodeStringE 0000000140026d34     IdHTTPWebBrokerBridge.o
 0002:00013d40       $unwind$_ZN21Idhttpwebbrokerbridge18TIdHTTPAppResponse12SendResponseEv 0000000140026d40     IdHTTPWebBrokerBridge.o
 0002:00013d70       $unwind$_ZN21Idhttpwebbrokerbridge18TIdHTTPAppResponse10SendStreamEPN6System7Classes7TStreamE 0000000140026d70     IdHTTPWebBrokerBridge.o
 0002:00013d78       $unwind$_ZN21Idhttpwebbrokerbridge18TIdHTTPAppResponse4SentEv 0000000140026d78     IdHTTPWebBrokerBridge.o
 0002:00013d7c       $unwind$_ZN21Idhttpwebbrokerbridge18TIdHTTPAppResponse10SetContentEN6System13UnicodeStringE 0000000140026d7c     IdHTTPWebBrokerBridge.o
 0002:00013d88       $unwind$_ZN21Idhttpwebbrokerbridge18TIdHTTPAppResponse13SetLogMessageEN6System13UnicodeStringE 0000000140026d88     IdHTTPWebBrokerBridge.o
 0002:00013d8c       $unwind$_ZN21Idhttpwebbrokerbridge18TIdHTTPAppResponse13SetStatusCodeEi 0000000140026d8c     IdHTTPWebBrokerBridge.o
 0002:00013d94       $unwind$_ZN21Idhttpwebbrokerbridge18TIdHTTPAppResponse16SetContentStreamEPN6System7Classes7TStreamE 0000000140026d94     IdHTTPWebBrokerBridge.o
 0002:00013da0       $unwind$_ZN21Idhttpwebbrokerbridge12DoHTTPEncodeEN6System13UnicodeStringE 0000000140026da0     IdHTTPWebBrokerBridge.o
 0002:00013dac       $unwind$_ZN21Idhttpwebbrokerbridge18TIdHTTPAppResponse27MoveCookiesAndCustomHeadersEv 0000000140026dac     IdHTTPWebBrokerBridge.o
 0002:00013de4       $unwind$_ZN21Idhttpwebbrokerbridge22TIdHTTPWebBrokerBridge14DoCommandOtherEPN9Idcontext10TIdContextEPN18Idcustomhttpserver18TIdHTTPRequestInfoEPNS4_19TIdHTTPResponseInfoE 0000000140026de4     IdHTTPWebBrokerBridge.o
 0002:00013dec       $unwind$_ZN21Idhttpwebbrokerbridge22TIdHTTPWebBrokerBridge13InitComponentEv 0000000140026dec     IdHTTPWebBrokerBridge.o
 0002:00013df4       $unwind$_ZN21Idhttpwebbrokerbridge36TIdHTTPWebBrokerBridgeRequestHandlerv04cctrEv 0000000140026df4     IdHTTPWebBrokerBridge.o
 0002:00013df8       $unwind$_ZN21Idhttpwebbrokerbridge36TIdHTTPWebBrokerBridgeRequestHandler3RunEPN9Idcontext10TIdContextEPN18Idcustomhttpserver18TIdHTTPRequestInfoEPNS4_19TIdHTTPResponseInfoE 0000000140026df8     IdHTTPWebBrokerBridge.o
 0002:00013e6c       $unwind$_ZN21Idhttpwebbrokerbridge36TIdHTTPWebBrokerBridgeRequestHandlerC3EPN6System7Classes10TComponentE 0000000140026e6c     IdHTTPWebBrokerBridge.o
 0002:00013ea8       $unwind$_ZN21Idhttpwebbrokerbridge36TIdHTTPWebBrokerBridgeRequestHandlerD0Ev 0000000140026ea8     IdHTTPWebBrokerBridge.o
 0002:00013eb4       $unwind$_ZN21Idhttpwebbrokerbridge36TIdHTTPWebBrokerBridgeRequestHandlerv04cdtrEv 0000000140026eb4     IdHTTPWebBrokerBridge.o
 0002:00013ebc       $unwind$_ZN21Idhttpwebbrokerbridge35IdHTTPWebBrokerBridgeRequestHandlerEv 0000000140026ebc     IdHTTPWebBrokerBridge.o
 0002:00013ec4       $unwind$_ZN21Idhttpwebbrokerbridge22TIdHTTPWebBrokerBridge12DoCommandGetEPN9Idcontext10TIdContextEPN18Idcustomhttpserver18TIdHTTPRequestInfoEPNS4_19TIdHTTPResponseInfoE 0000000140026ec4     IdHTTPWebBrokerBridge.o
 0002:00013ecc       $unwind$_ZN21Idhttpwebbrokerbridge22TIdHTTPWebBrokerBridge17RunWebModuleClassEPN9Idcontext10TIdContextEPN18Idcustomhttpserver18TIdHTTPRequestInfoEPNS4_19TIdHTTPResponseInfoE 0000000140026ecc     IdHTTPWebBrokerBridge.o
 0002:00013f70       $unwind$_ZN21Idhttpwebbrokerbridge22TIdHTTPWebBrokerBridge22RegisterWebModuleClassEN6System7Classes15TComponentClassE 0000000140026f70     IdHTTPWebBrokerBridge.o
 0002:00013f74       $unwind$_ZN21Idhttpwebbrokerbridge12FinalizationEv 0000000140026f74     IdHTTPWebBrokerBridge.o
 0002:00013f78       $unwind$_ZN21Idhttpwebbrokerbridge14initializationEv 0000000140026f78     IdHTTPWebBrokerBridge.o
 0002:00013f7c       $unwind$_ZN6System8Generics11Collections14TEnumerable__1IPNS_7Classes15TCollectionItemEE11ToArrayImplEx 0000000140026f7c     IdHTTPWebBrokerBridge.o
 0002:00013fac       $unwind$_ZN6System8Generics11Collections14TEnumerable__1IPNS_7Classes15TCollectionItemEED0Ev 0000000140026fac     IdHTTPWebBrokerBridge.o
 0002:00013fb8       $unwind$_ZN6System8Generics11Collections14TEnumerable__1IPNS_7Classes15TCollectionItemEE13GetEnumeratorEv 0000000140026fb8     IdHTTPWebBrokerBridge.o
 0002:00013fc0       $unwind$_ZN6System8Generics11Collections14TEnumerable__1IPNS_7Classes15TCollectionItemEE7ToArrayEv 0000000140026fc0     IdHTTPWebBrokerBridge.o
 0002:00013ff0       $unwind$_ZN6System8Generics11Collections14TEnumerator__1IPNS_7Classes15TCollectionItemEE8MoveNextEv 0000000140026ff0     IdHTTPWebBrokerBridge.o
 0002:00013ff8       $unwind$_ZN6System8Generics11Collections8TList__1IPNS_7Classes15TCollectionItemEE11FListHelperEv 0000000140026ff8     IdHTTPWebBrokerBridge.o
 0002:00013ffc       $unwind$_ZN6System8Generics11Collections8TList__1IPNS_7Classes15TCollectionItemEE7GetListEv 0000000140026ffc     IdHTTPWebBrokerBridge.o
 0002:00014004       $unwind$_ZN6System8Generics11Collections8TList__1IPNS_7Classes15TCollectionItemEE8GetPListEv 0000000140027004     IdHTTPWebBrokerBridge.o
 0002:00014008       $unwind$_ZN6System8Generics11Collections8TList__1IPNS_7Classes15TCollectionItemEE11GetCapacityEv 0000000140027008     IdHTTPWebBrokerBridge.o
 0002:0001400c       $unwind$_ZN6System8Generics11Collections8TList__1IPNS_7Classes15TCollectionItemEE11SetCapacityEx 000000014002700c     IdHTTPWebBrokerBridge.o
 0002:00014018       $unwind$_ZN6System8Generics11Collections8TList__1IPNS_7Classes15TCollectionItemEE8SetCountEx 0000000140027018     IdHTTPWebBrokerBridge.o
 0002:00014020       $unwind$_ZN6System8Generics11Collections8TList__1IPNS_7Classes15TCollectionItemEE10GetIsEmptyEv 0000000140027020     IdHTTPWebBrokerBridge.o
 0002:00014024       $unwind$_ZN6System8Generics11Collections8TList__1IPNS_7Classes15TCollectionItemEE14CheckItemRangeEx 0000000140027024     IdHTTPWebBrokerBridge.o
 0002:0001402c       $unwind$_ZN6System8Generics11Collections8TList__1IPNS_7Classes15TCollectionItemEE7GetItemEx 000000014002702c     IdHTTPWebBrokerBridge.o
 0002:00014038       $unwind$_ZN6System8Generics11Collections8TList__1IPNS_7Classes15TCollectionItemEE7SetItemExS5_ 0000000140027038     IdHTTPWebBrokerBridge.o
 0002:00014040       $unwind$_ZN6System8Generics11Collections8TList__1IPNS_7Classes15TCollectionItemEE9GrowCheckEx 0000000140027040     IdHTTPWebBrokerBridge.o
 0002:00014048       $unwind$_ZN6System8Generics11Collections8TList__1IPNS_7Classes15TCollectionItemEE8DoDeleteExNS1_23TCollectionNotificationE 0000000140027048     IdHTTPWebBrokerBridge.o
 0002:00014050       $unwind$_ZN6System8Generics11Collections8TList__1IPNS_7Classes15TCollectionItemEE14InternalNotifyEPKvNS1_23TCollectionNotificationE 0000000140027050     IdHTTPWebBrokerBridge.o
 0002:00014058       $unwind$_ZN6System8Generics11Collections8TList__1IPNS_7Classes15TCollectionItemEE12UpdateNotifyEv 0000000140027058     IdHTTPWebBrokerBridge.o
 0002:00014064       $unwind$_ZN6System8Generics11Collections8TList__1IPNS_7Classes15TCollectionItemEE11SetOnNotifyEU9__closurePFvPNS_7TObjectES5_NS1_23TCollectionNotificationEE 0000000140027064     IdHTTPWebBrokerBridge.o
 0002:00014070       $unwind$_ZN6System8Generics11Collections8TList__1IPNS_7Classes15TCollectionItemEE15InternalCompareEPKvS8_ 0000000140027070     IdHTTPWebBrokerBridge.o
 0002:00014078       $unwind$_ZN6System8Generics11Collections8TList__1IPNS_7Classes15TCollectionItemEE14UpdateComparerENS_15DelphiInterfaceINS0_8Defaults12IComparer__1IS5_EEEE 0000000140027078     IdHTTPWebBrokerBridge.o
 0002:00014084       $unwind$_ZN6System8Generics11Collections8TList__1IPNS_7Classes15TCollectionItemEE9ItemValueES5_ 0000000140027084     IdHTTPWebBrokerBridge.o
 0002:00014088       $unwind$_ZN6System8Generics11Collections8TList__1IPNS_7Classes15TCollectionItemEE15DoGetEnumeratorEv 0000000140027088     IdHTTPWebBrokerBridge.o
 0002:00014090       $unwind$_ZN6System8Generics11Collections8TList__1IPNS_7Classes15TCollectionItemEE6NotifyES5_NS1_23TCollectionNotificationE 0000000140027090     IdHTTPWebBrokerBridge.o
 0002:00014098       $unwind$_ZN6System8Generics11Collections8TList__1IPNS_7Classes15TCollectionItemEEC3Ev 0000000140027098     IdHTTPWebBrokerBridge.o
 0002:000140d4       $unwind$_ZN6System8Generics11Collections8TList__1IPNS_7Classes15TCollectionItemEEC3ENS_15DelphiInterfaceINS0_8Defaults12IComparer__1IS5_EEEE 00000001400270d4     IdHTTPWebBrokerBridge.o
 0002:00014110       $unwind$_ZN6System8Generics11Collections8TList__1IPNS_7Classes15TCollectionItemEEC3EPNS1_14TEnumerable__1IS5_EE 0000000140027110     IdHTTPWebBrokerBridge.o
 0002:0001414c       $unwind$_ZN6System8Generics11Collections8TList__1IPNS_7Classes15TCollectionItemEEC3ENS_15DelphiInterfaceINS_14IEnumerable__1IS5_EEEE 000000014002714c     IdHTTPWebBrokerBridge.o
 0002:00014188       $unwind$_ZN6System8Generics11Collections8TList__1IPNS_7Classes15TCollectionItemEEC3EPKS5_x 0000000140027188     IdHTTPWebBrokerBridge.o
 0002:000141c4       $unwind$_ZN6System8Generics11Collections8TList__1IPNS_7Classes15TCollectionItemEED0Ev 00000001400271c4     IdHTTPWebBrokerBridge.o
 0002:000141d0       $unwind$_ZN6System8Generics11Collections8TList__1IPNS_7Classes15TCollectionItemEE5ErrorENS_13UnicodeStringEx 00000001400271d0     IdHTTPWebBrokerBridge.o
 0002:000141dc       $unwind$_ZN6System8Generics11Collections8TList__1IPNS_7Classes15TCollectionItemEE5ErrorEPNS_13TResStringRecEx 00000001400271dc     IdHTTPWebBrokerBridge.o
 0002:0001420c       $unwind$_ZN6System8Generics11Collections8TList__1IPNS_7Classes15TCollectionItemEE3AddES5_ 000000014002720c     IdHTTPWebBrokerBridge.o
 0002:00014214       $unwind$_ZN6System8Generics11Collections8TList__1IPNS_7Classes15TCollectionItemEE8AddRangeEPKS5_x 0000000140027214     IdHTTPWebBrokerBridge.o
 0002:0001421c       $unwind$_ZN6System8Generics11Collections8TList__1IPNS_7Classes15TCollectionItemEE8AddRangeENS_15DelphiInterfaceINS_14IEnumerable__1IS5_EEEE 000000014002721c     IdHTTPWebBrokerBridge.o
 0002:00014224       $unwind$_ZN6System8Generics11Collections8TList__1IPNS_7Classes15TCollectionItemEE8AddRangeEPNS1_14TEnumerable__1IS5_EE 0000000140027224     IdHTTPWebBrokerBridge.o
 0002:0001422c       $unwind$_ZN6System8Generics11Collections8TList__1IPNS_7Classes15TCollectionItemEE6InsertExS5_ 000000014002722c     IdHTTPWebBrokerBridge.o
 0002:00014234       $unwind$_ZN6System8Generics11Collections8TList__1IPNS_7Classes15TCollectionItemEE11InsertRangeExPKS5_xx 0000000140027234     IdHTTPWebBrokerBridge.o
 0002:0001423c       $unwind$_ZN6System8Generics11Collections8TList__1IPNS_7Classes15TCollectionItemEE11InsertRangeExPKS5_x 000000014002723c     IdHTTPWebBrokerBridge.o
 0002:00014244       $unwind$_ZN6System8Generics11Collections8TList__1IPNS_7Classes15TCollectionItemEE11InsertRangeExNS_15DelphiInterfaceINS_14IEnumerable__1IS5_EEEE 0000000140027244     IdHTTPWebBrokerBridge.o
 0002:00014290       $unwind$_ZN6System8Generics11Collections8TList__1IPNS_7Classes15TCollectionItemEE11InsertRangeExPNS1_14TEnumerable__1IS5_EE 0000000140027290     IdHTTPWebBrokerBridge.o
 0002:000142c4       $unwind$_ZN6System8Generics11Collections8TList__1IPNS_7Classes15TCollectionItemEE4PackEv 00000001400272c4     IdHTTPWebBrokerBridge.o
 0002:000142f8       $unwind$_ZN6System8Generics11Collections8TList__1IPNS_7Classes15TCollectionItemEE4PackENS_15DelphiInterfaceINS6_10TEmptyFuncEEE 00000001400272f8     IdHTTPWebBrokerBridge.o
 0002:00014328       $unwind$_ZN6System8Generics11Collections8TList__1IPNS_7Classes15TCollectionItemEE6RemoveES5_ 0000000140027328     IdHTTPWebBrokerBridge.o
 0002:00014334       $unwind$_ZN6System8Generics11Collections8TList__1IPNS_7Classes15TCollectionItemEE10RemoveItemES5_NS_5Types10TDirectionE 0000000140027334     IdHTTPWebBrokerBridge.o
 0002:00014340       $unwind$_ZN6System8Generics11Collections8TList__1IPNS_7Classes15TCollectionItemEE6DeleteEx 0000000140027340     IdHTTPWebBrokerBridge.o
 0002:00014348       $unwind$_ZN6System8Generics11Collections8TList__1IPNS_7Classes15TCollectionItemEE11DeleteRangeExx 0000000140027348     IdHTTPWebBrokerBridge.o
 0002:00014350       $unwind$_ZN6System8Generics11Collections8TList__1IPNS_7Classes15TCollectionItemEE11ExtractItemES5_NS_5Types10TDirectionE 0000000140027350     IdHTTPWebBrokerBridge.o
 0002:0001435c       $unwind$_ZN6System8Generics11Collections8TList__1IPNS_7Classes15TCollectionItemEE7ExtractES5_ 000000014002735c     IdHTTPWebBrokerBridge.o
 0002:00014368       $unwind$_ZN6System8Generics11Collections8TList__1IPNS_7Classes15TCollectionItemEE9ExtractAtEx 0000000140027368     IdHTTPWebBrokerBridge.o
 0002:00014374       $unwind$_ZN6System8Generics11Collections8TList__1IPNS_7Classes15TCollectionItemEE8ExchangeExx 0000000140027374     IdHTTPWebBrokerBridge.o
 0002:0001437c       $unwind$_ZN6System8Generics11Collections8TList__1IPNS_7Classes15TCollectionItemEE4MoveExx 000000014002737c     IdHTTPWebBrokerBridge.o
 0002:00014384       $unwind$_ZN6System8Generics11Collections8TList__1IPNS_7Classes15TCollectionItemEE5FirstEv 0000000140027384     IdHTTPWebBrokerBridge.o
 0002:0001438c       $unwind$_ZN6System8Generics11Collections8TList__1IPNS_7Classes15TCollectionItemEE4LastEv 000000014002738c     IdHTTPWebBrokerBridge.o
 0002:00014398       $unwind$_ZN6System8Generics11Collections8TList__1IPNS_7Classes15TCollectionItemEE5ClearEv 0000000140027398     IdHTTPWebBrokerBridge.o
 0002:000143a0       $unwind$_ZN6System8Generics11Collections8TList__1IPNS_7Classes15TCollectionItemEE6ExpandEv 00000001400273a0     IdHTTPWebBrokerBridge.o
 0002:000143a8       $unwind$_ZN6System8Generics11Collections8TList__1IPNS_7Classes15TCollectionItemEE8ContainsES5_ 00000001400273a8     IdHTTPWebBrokerBridge.o
 0002:000143b4       $unwind$_ZN6System8Generics11Collections8TList__1IPNS_7Classes15TCollectionItemEE7IndexOfES5_ 00000001400273b4     IdHTTPWebBrokerBridge.o
 0002:000143c0       $unwind$_ZN6System8Generics11Collections8TList__1IPNS_7Classes15TCollectionItemEE11IndexOfItemES5_NS_5Types10TDirectionE 00000001400273c0     IdHTTPWebBrokerBridge.o
 0002:000143cc       $unwind$_ZN6System8Generics11Collections8TList__1IPNS_7Classes15TCollectionItemEE11LastIndexOfES5_ 00000001400273cc     IdHTTPWebBrokerBridge.o
 0002:000143d8       $unwind$_ZN6System8Generics11Collections8TList__1IPNS_7Classes15TCollectionItemEE7ReverseEv 00000001400273d8     IdHTTPWebBrokerBridge.o
 0002:000143e0       $unwind$_ZN6System8Generics11Collections8TList__1IPNS_7Classes15TCollectionItemEE4SortEv 00000001400273e0     IdHTTPWebBrokerBridge.o
 0002:000143e8       $unwind$_ZN6System8Generics11Collections8TList__1IPNS_7Classes15TCollectionItemEE4SortENS_15DelphiInterfaceINS0_8Defaults12IComparer__1IS5_EEEE 00000001400273e8     IdHTTPWebBrokerBridge.o
 0002:000143f0       $unwind$_ZN6System8Generics11Collections8TList__1IPNS_7Classes15TCollectionItemEE4SortENS_15DelphiInterfaceINS0_8Defaults12IComparer__1IS5_EEEExx 00000001400273f0     IdHTTPWebBrokerBridge.o
 0002:000143f8       $unwind$_ZN6System8Generics11Collections8TList__1IPNS_7Classes15TCollectionItemEE12BinarySearchES5_Rx 00000001400273f8     IdHTTPWebBrokerBridge.o
 0002:00014400       $unwind$_ZN6System8Generics11Collections8TList__1IPNS_7Classes15TCollectionItemEE12BinarySearchES5_RxNS_15DelphiInterfaceINS0_8Defaults12IComparer__1IS5_EEEE 0000000140027400     IdHTTPWebBrokerBridge.o
 0002:00014408       $unwind$_ZN6System8Generics11Collections8TList__1IPNS_7Classes15TCollectionItemEE12BinarySearchES5_RxNS_15DelphiInterfaceINS0_8Defaults12IComparer__1IS5_EEEExx 0000000140027408     IdHTTPWebBrokerBridge.o
 0002:00014410       $unwind$_ZN6System8Generics11Collections8TList__1IPNS_7Classes15TCollectionItemEE12BinarySearchES5_Ri 0000000140027410     IdHTTPWebBrokerBridge.o
 0002:00014418       $unwind$_ZN6System8Generics11Collections8TList__1IPNS_7Classes15TCollectionItemEE12BinarySearchES5_RiNS_15DelphiInterfaceINS0_8Defaults12IComparer__1IS5_EEEE 0000000140027418     IdHTTPWebBrokerBridge.o
 0002:00014420       $unwind$_ZN6System8Generics11Collections8TList__1IPNS_7Classes15TCollectionItemEE12BinarySearchES5_RiNS_15DelphiInterfaceINS0_8Defaults12IComparer__1IS5_EEEEii 0000000140027420     IdHTTPWebBrokerBridge.o
 0002:00014428       $unwind$_ZN6System8Generics11Collections8TList__1IPNS_7Classes15TCollectionItemEE10TrimExcessEv 0000000140027428     IdHTTPWebBrokerBridge.o
 0002:00014430       $unwind$_ZN6System8Generics11Collections8TList__1IPNS_7Classes15TCollectionItemEE7ToArrayEv 0000000140027430     IdHTTPWebBrokerBridge.o
 0002:00014438       $unwind$_ZN6System8Generics11Collections8TList__1IPNS_7Classes15TCollectionItemEE13GetEnumeratorEv 0000000140027438     IdHTTPWebBrokerBridge.o
 0002:00014440       $unwind$_ZN6System8Generics11Collections8TList__1IPNS_7Classes15TCollectionItemEE11TEnumerator10GetCurrentEv 0000000140027440     IdHTTPWebBrokerBridge.o
 0002:00014444       $unwind$_ZN6System8Generics11Collections8TList__1IPNS_7Classes15TCollectionItemEE11TEnumerator12DoGetCurrentEv 0000000140027444     IdHTTPWebBrokerBridge.o
 0002:00014450       $unwind$_ZN6System8Generics11Collections8TList__1IPNS_7Classes15TCollectionItemEE11TEnumerator10DoMoveNextEv 0000000140027450     IdHTTPWebBrokerBridge.o
 0002:00014454       $unwind$_ZN6System8Generics11Collections8TList__1IPNS_7Classes15TCollectionItemEE11TEnumeratorC3EPS6_ 0000000140027454     IdHTTPWebBrokerBridge.o
 0002:00014490       $unwind$_ZN6System8Generics11Collections8TList__1IPNS_7Classes15TCollectionItemEE11TEnumerator8MoveNextEv 0000000140027490     IdHTTPWebBrokerBridge.o
 0002:00014494       $unwind$_ZN6System8Generics8Defaults12TComparer__1IPNS_7Classes15TCollectionItemEE13EQOperCompareEPvS5_S5_ 0000000140027494     IdHTTPWebBrokerBridge.o
 0002:0001449c       $unwind$_ZN6System8Generics8Defaults12TComparer__1IPNS_7Classes15TCollectionItemEE25TryUseRecEqualityOperatorEv 000000014002749c     IdHTTPWebBrokerBridge.o
 0002:000144a4       $unwind$_ZN6System8Generics8Defaults12TComparer__1IPNS_7Classes15TCollectionItemEE8_DefaultEv 00000001400274a4     IdHTTPWebBrokerBridge.o
 0002:000144ac       $unwind$_ZN6System8Generics8Defaults12TComparer__1IPNS_7Classes15TCollectionItemEE10_ConstructENS_15DelphiInterfaceINS1_14TComparison__1IS5_EEEE 00000001400274ac     IdHTTPWebBrokerBridge.o
 0002:000144b0       $unwind$_ZN6System8Generics8Defaults12TComparer__1IPNS_7Classes15TCollectionItemEE7DefaultEv 00000001400274b0     IdHTTPWebBrokerBridge.o
 0002:000144b8       $unwind$_ZN6System8Generics8Defaults12TComparer__1IPNS_7Classes15TCollectionItemEE9ConstructENS_15DelphiInterfaceINS1_14TComparison__1IS5_EEEE 00000001400274b8     IdHTTPWebBrokerBridge.o
 0002:000144c4       $unwind$_ZN6System8Generics11Collections24@TList__1_Pack_1__ActRecIPNS_7Classes15TCollectionItemEE7_0_BodyEPKv 00000001400274c4     IdHTTPWebBrokerBridge.o
 0002:000144cc       $unwind$_ZN6System8Generics11Collections24@TList__1_Pack_0__ActRecIPNS_7Classes15TCollectionItemEE7_0_BodyEPKv 00000001400274cc     IdHTTPWebBrokerBridge.o
 0002:000144d4       $unwind$_ZN6System8Generics11Collections6TArray4SortIPNS_7Classes15TCollectionItemEEEvPT_xNS_15DelphiInterfaceINS0_8Defaults12IComparer__1IS8_EEEExx 00000001400274d4     IdHTTPWebBrokerBridge.o
 0002:000144e0       $unwind$_ZN6System8Generics11Collections6TArray12BinarySearchIPNS_7Classes15TCollectionItemEEEbPKT_xS8_RxNS_15DelphiInterfaceINS0_8Defaults12IComparer__1IS8_EEEExx 00000001400274e0     IdHTTPWebBrokerBridge.o
 0002:000144ec       $unwind$_ZN6System8Generics11Collections6TArray12BinarySearchIPNS_7Classes15TCollectionItemEEEbPKT_xS8_RiNS_15DelphiInterfaceINS0_8Defaults12IComparer__1IS8_EEEEii 00000001400274ec     IdHTTPWebBrokerBridge.o
 0002:000144fc       $unwind$_ZN6System8Generics11Collections6TArray9QuickSortIPNS_7Classes15TCollectionItemEEEvPT_xNS_15DelphiInterfaceINS0_8Defaults12IComparer__1IS8_EEEExx 00000001400274fc     IdHTTPWebBrokerBridge.o
 0002:0001450c       $unwind$_ZN6System8Generics11Collections6TArray14DoBinarySearchIPNS_7Classes15TCollectionItemEEEbPKT_xS8_RxNS_15DelphiInterfaceINS0_8Defaults12IComparer__1IS8_EEEExx 000000014002750c     IdHTTPWebBrokerBridge.o
 0002:00014544       $unwind$_ZN6System8Internal7Initcpp23SelectForInitializationEPNS1_20TUnitDescriptorBlockES3_ 0000000140027544     rtl:System.Internal.InitCPP.o
 0002:00014548       $unwind$_ZN6System8Internal7Initcpp23SelectForInitializationEPPNS1_20TUnitDescriptorBlockES4_ 0000000140027548     rtl:System.Internal.InitCPP.o
 0002:0001454c       $unwind$_ZN6System8Internal7Initcpp15InitializeUnitsEPNS1_20TUnitDescriptorBlockES3_ 000000014002754c     rtl:System.Internal.InitCPP.o
 0002:00014558       $unwind$_ZN6System8Internal7Initcpp13FinalizeUnitsEPNS1_20TUnitDescriptorBlockES3_ 0000000140027558     rtl:System.Internal.InitCPP.o
 0002:00014560       $unwind$_ZN6System8Internal7Initcpp15InitializeUnitsEPPNS1_20TUnitDescriptorBlockES4_ 0000000140027560     rtl:System.Internal.InitCPP.o
 0002:0001456c       $unwind$_ZN6System8Internal7Initcpp13FinalizeUnitsEPPNS1_20TUnitDescriptorBlockES4_ 000000014002756c     rtl:System.Internal.InitCPP.o
 0002:00014574       $unwind$_ZN6System8Internal7Initcpp15InitializeUnitsEPNS1_15TUnitDescriptorES3_ 0000000140027574     rtl:System.Internal.InitCPP.o
 0002:0001457c       $unwind$_ZN6System8Internal7Initcpp13FinalizeUnitsEPNS1_15TUnitDescriptorES3_ 000000014002757c     rtl:System.Internal.InitCPP.o
 0002:00014584       $unwind$_ZN6System8Internal7Initcpp15CalculateDegreeEPNS1_20TUnitDescriptorBlockES3_ 0000000140027584     rtl:System.Internal.InitCPP.o
 0002:00014588       $unwind$_ZN6System8Internal7Initcpp15CalculateDegreeEPPNS1_20TUnitDescriptorBlockES4_ 0000000140027588     rtl:System.Internal.InitCPP.o
 0002:0001458c       $unwind$_ZN6System8Internal7Initcpp16FinalizeUnitListEPPPNS1_15TUnitDescriptorES5_ 000000014002758c     rtl:System.Internal.InitCPP.o
 0002:000145c8       $unwind$_ZN6System8Internal7Initcpp18InitializeRootUnitEPNS1_15TUnitDescriptorE 00000001400275c8     rtl:System.Internal.InitCPP.o
 0002:0001467c       $unwind$_ZN6System8Internal7Initcpp16FinalizeRootUnitEPNS1_15TUnitDescriptorE 000000014002767c     rtl:System.Internal.InitCPP.o
 0002:000146b8       $unwind$_ZN6System8Internal7Initcpp12FinalizationEv 00000001400276b8     rtl:System.Internal.InitCPP.o
 0002:000146bc       $unwind$_ZN6System8Internal7Initcpp14initializationEv 00000001400276bc     rtl:System.Internal.InitCPP.o
 0003:00000000       version_string             0000000140028000     crtbegin.o
 0003:000000e8       _ZN7Sysinit6ModuleE        00000001400280e8     sysinit.o
 0003:00000120       _ZN7Sysinit7TlsProcE       0000000140028120     sysinit.o
 0003:00000140       _ZN7Sysinit21_dtors_delayhlp_65535E 0000000140028140     sysinit.o
 0003:00000160       initial_tznames            0000000140028160     libucrt:lib64_libucrt_extra_a-ucrtbase_compat.o
 0003:00000178       initial_timezone           0000000140028178     libucrt:lib64_libucrt_extra_a-ucrtbase_compat.o
 0003:00000188       initial_daylight           0000000140028188     libucrt:lib64_libucrt_extra_a-ucrtbase_compat.o
 0003:000001c8       initial_tzname0            00000001400281c8     libucrt:lib64_libucrt_extra_a-ucrtbase_compat.o
 0003:000001cc       initial_tzname1            00000001400281cc     libucrt:lib64_libucrt_extra_a-ucrtbase_compat.o
 0003:000001e8       __do_global_dtors.p        00000001400281e8     libmingw32:lib64_libmingw32_a-gccmain.o
 0003:00000234       managedapp                 0000000140028234     crt2.o
 0003:00000238       startinfo                  0000000140028238     crt2.o
 0003:0000023c       argc                       000000014002823c     crt2.o
 0003:00000240       argv                       0000000140028240     crt2.o
 0003:00000248       envp                       0000000140028248     crt2.o
 0003:00000250       argret                     0000000140028250     crt2.o
 0003:00000254       has_cctor                  0000000140028254     crt2.o
 0003:00000258       mainret                    0000000140028258     crt2.o
 0003:000002a8       _ZN7Sysinit2_1E            00000001400282a8     sysinit.o
 0003:000002b0       _ZN7Sysinit9tlsBufferE     00000001400282b0     sysinit.o
 0003:000002b8       _ZN7Sysinit9UseTlsAPIE     00000001400282b8     sysinit.o
 0003:000002c0       .bss.delayhlp              00000001400282c0     sysinit.o
 0003:000002c0       ..__puiHead                00000001400282c0     sysinit.o
 0003:000002e8       local__initenv             00000001400282e8     libucrt:lib64_libucrt_extra_a-__initenv.o
 0003:000002f0       local__winitenv            00000001400282f0     libucrt:lib64_libucrt_extra_a-__initenv.o
 0003:000002f8       initialized                00000001400282f8     libmingw32:lib64_libmingw32_a-gccmain.o
 0003:00000330       _pei386_runtime_relocator.was_init 0000000140028330     libmingw32:lib64_libmingw32_a-pseudo-reloc.o
 0003:00000338       the_secs                   0000000140028338     libmingw32:lib64_libmingw32_a-pseudo-reloc.o
 0003:00000340       maxSections                0000000140028340     libmingw32:lib64_libmingw32_a-pseudo-reloc.o
 0003:00000348       stUserMathErr              0000000140028348     libmingw32:lib64_libmingw32_a-usermatherr.o
 0003:00000368       __mingwthr_cs_init         0000000140028368     libmingw32:lib64_libmingw32_a-tlsthrd.o
 0003:00000370       __mingwthr_cs              0000000140028370     libmingw32:lib64_libmingw32_a-tlsthrd.o
 0003:00000398       key_dtor_list              0000000140028398     libmingw32:lib64_libmingw32_a-tlsthrd.o
 0003:000003a8       _ZZ18__delphi_type_infoE15type_info_mutex 00000001400283a8     rtle:syssupp.o
 0003:000003b0       _ZZ18__delphi_type_infoE13type_info_map 00000001400283b0     rtle:syssupp.o
 0003:000003d8       _ZGVZ18__delphi_type_infoE13type_info_map 00000001400283d8     rtle:syssupp.o
 0003:000003e8       _ZN6System8Internal7Strhlpr2_1E 00000001400283e8     rtl:System.Internal.StrHlpr.o
 0003:000003ec       _ZN21Idhttpwebbrokerbridge3_21E 00000001400283ec     IdHTTPWebBrokerBridge.o
 0003:000003f0       _ZN21Idhttpwebbrokerbridge36TIdHTTPWebBrokerBridgeRequestHandler18FWebRequestHandlerE 00000001400283f0     IdHTTPWebBrokerBridge.o
 0003:000003f8       _ZN21Idhttpwebbrokerbridge36TIdHTTPWebBrokerBridgeRequestHandler14_ClassInitFlagE 00000001400283f8     IdHTTPWebBrokerBridge.o
 0003:000003fc       _ZN6System8Internal7Initcpp2_1E 00000001400283fc     rtl:System.Internal.InitCPP.o
 0004:0000006c       $pdata$_ZN7Sysinit19InterlockedExchangeERii 000000014002906c     sysinit.o
 0004:00000078       $pdata$_ZN7Sysinit26InterlockedExchangePointerERPvS0_ 0000000140029078     sysinit.o
 0004:00000084       $pdata$_ZN7Sysinit17SetDliNotifyHook2EPFPv15dliNotificationP13DelayLoadInfoE 0000000140029084     sysinit.o
 0004:00000090       $pdata$_ZN7Sysinit14DliNotifyHook2Ev 0000000140029090     sysinit.o
 0004:0000009c       $pdata$_ZN7Sysinit18SetDliFailureHook2EPFPv15dliNotificationP13DelayLoadInfoE 000000014002909c     sysinit.o
 0004:000000a8       $pdata$_ZN7Sysinit15DliFailureHook2Ev 00000001400290a8     sysinit.o
 0004:000000b4       $pdata$_ZN7Sysinit17_DelayLoadHelper2ERPvS0_ 00000001400290b4     sysinit.o
 0004:000000c0       $pdata$_ZN7Sysinit21UnloadDelayLoadedDLL2EPc 00000001400290c0     sysinit.o
 0004:000000cc       $pdata$_ZN7Sysinit20LoadAllImportsForDllEPc 00000001400290cc     sysinit.o
 0004:000000d8       $pdata$_ZN7Sysinit14AllocTlsBufferEi 00000001400290d8     sysinit.o
 0004:000000e4       $pdata$_ZN7Sysinit10GetTlsSizeEv 00000001400290e4     sysinit.o
 0004:000000f0       $pdata$_ZN7Sysinit13InitThreadTLSEv 00000001400290f0     sysinit.o
 0004:000000fc       $pdata$_ZN7Sysinit14InitProcessTLSEv 00000001400290fc     sysinit.o
 0004:00000108       $pdata$_ZN7Sysinit13ExitThreadTLSEv 0000000140029108     sysinit.o
 0004:00000114       $pdata$_ZN7Sysinit14ExitProcessTLSEv 0000000140029114     sysinit.o
 0004:00000120       $pdata$_ZN7Sysinit6isWineEv 0000000140029120     sysinit.o
 0004:0000012c       $pdata$_ZN7Sysinit7_GetTlsEv 000000014002912c     sysinit.o
 0004:00000138       $pdata$_ZN7Sysinit16InitializeModuleEv 0000000140029138     sysinit.o
 0004:00000144       $pdata$_ZN7Sysinit18UninitializeModuleEv 0000000140029144     sysinit.o
 0004:00000150       $pdata$_ZN7Sysinit7VclInitEbbyb 0000000140029150     sysinit.o
 0004:0000015c       $pdata$_ZN7Sysinit7VclExitEv 000000014002915c     sysinit.o
 0004:00000168       $pdata$_ZN7Sysinit14__dbkDummyProcEv 0000000140029168     sysinit.o
 0004:00000174       $pdata$_ZN7Sysinit14__dbkFCallArgsEPvS0_S0_S0_S0_S0_S0_S0_S0_S0_S0_S0_S0_S0_S0_S0_S0_S0_S0_S0_S0_S0_S0_S0_S0_S0_S0_S0_S0_S0_ 0000000140029174     sysinit.o
 0004:00000180       $pdata$_ZN7Sysinit19__dbk_fcall_wrapperEv 0000000140029180     sysinit.o
 0004:00000198       $pdata$_ZN7Sysinit8_InitPkgEyiPv 0000000140029198     sysinit.o
 0004:000001a4       $pdata$_ZN7Sysinit12_PackageLoadEPN6System16PackageInfoTableE 00000001400291a4     sysinit.o
 0004:000001b0       $pdata$_ZN7Sysinit14_PackageUnloadEPN6System16PackageInfoTableE 00000001400291b0     sysinit.o
 0004:000001bc       $pdata$_ZN7Sysinit8_InitLibEPN6System12TInitContextEPNS0_16PackageInfoTableEyjPv 00000001400291bc     sysinit.o
 0004:000001c8       $pdata$_ZN7Sysinit8_InitExeEPv 00000001400291c8     sysinit.o
 0004:000001d4       $pdata$delayhlp            00000001400291d4     sysinit.o
 0004:00000204       $pdata$_ZN7Sysinit12FinalizationEv 0000000140029204     sysinit.o
 0004:00000210       $pdata$_ZN7Sysinit14initializationEv 0000000140029210     sysinit.o
 0004:000009fc       $pdata$_ZN6System8Internal7Strhlpr15UnicodeFromAnsiERNS_13UnicodeStringERNS_11AnsiStringTILt65535EEE 00000001400299fc     rtl:System.Internal.StrHlpr.o
 0004:00000a08       $pdata$_ZN6System8Internal7Strhlpr16UnicodeFromPCharERNS_13UnicodeStringEPcb 0000000140029a08     rtl:System.Internal.StrHlpr.o
 0004:00000a20       $pdata$_ZN6System8Internal7Strhlpr15UnicodeFromUTF8ERNS_13UnicodeStringEPKc 0000000140029a20     rtl:System.Internal.StrHlpr.o
 0004:00000a2c       $pdata$_ZN6System8Internal7Strhlpr20UnicodeFromPWideCharERNS_13UnicodeStringEPw 0000000140029a2c     rtl:System.Internal.StrHlpr.o
 0004:00000a38       $pdata$_ZN6System8Internal7Strhlpr13UnicodeAppendERNS_13UnicodeStringES3_ 0000000140029a38     rtl:System.Internal.StrHlpr.o
 0004:00000a44       $pdata$_ZN6System8Internal7Strhlpr10UnicodeCatERNS_13UnicodeStringES3_ 0000000140029a44     rtl:System.Internal.StrHlpr.o
 0004:00000a50       $pdata$_ZN6System8Internal7Strhlpr13UnicodeDeleteERNS_13UnicodeStringEii 0000000140029a50     rtl:System.Internal.StrHlpr.o
 0004:00000a5c       $pdata$_ZN6System8Internal7Strhlpr16UnicodeSetLengthERNS_13UnicodeStringEi 0000000140029a5c     rtl:System.Internal.StrHlpr.o
 0004:00000a68       $pdata$_ZN6System8Internal7Strhlpr10UnicodePosERNS_13UnicodeStringES3_ 0000000140029a68     rtl:System.Internal.StrHlpr.o
 0004:00000a74       $pdata$_ZN6System8Internal7Strhlpr11UnicodeCopyERNS_13UnicodeStringEii 0000000140029a74     rtl:System.Internal.StrHlpr.o
 0004:00000a80       $pdata$_ZN6System8Internal7Strhlpr13UnicodeInsertERNS_13UnicodeStringES3_i 0000000140029a80     rtl:System.Internal.StrHlpr.o
 0004:00000a8c       $pdata$_ZN6System8Internal7Strhlpr13UnicodeAssignERNS_13UnicodeStringES3_ 0000000140029a8c     rtl:System.Internal.StrHlpr.o
 0004:00000a98       $pdata$_ZN6System8Internal7Strhlpr11UnicodeFreeERNS_13UnicodeStringE 0000000140029a98     rtl:System.Internal.StrHlpr.o
 0004:00000aa4       $pdata$_ZN6System8Internal7Strhlpr12UnicodeEqualERNS_13UnicodeStringES3_ 0000000140029aa4     rtl:System.Internal.StrHlpr.o
 0004:00000ab0       $pdata$_ZN6System8Internal7Strhlpr11UnicodeLessERNS_13UnicodeStringES3_ 0000000140029ab0     rtl:System.Internal.StrHlpr.o
 0004:00000abc       $pdata$_ZN6System8Internal7Strhlpr14UnicodeGreaterERNS_13UnicodeStringES3_ 0000000140029abc     rtl:System.Internal.StrHlpr.o
 0004:00000ac8       $pdata$_ZN6System8Internal7Strhlpr10AnsiAppendERNS_11AnsiStringTILt65535EEES4_ 0000000140029ac8     rtl:System.Internal.StrHlpr.o
 0004:00000ad4       $pdata$_ZN6System8Internal7Strhlpr7AnsiCatERNS_11AnsiStringTILt65535EEES4_ 0000000140029ad4     rtl:System.Internal.StrHlpr.o
 0004:00000ae0       $pdata$_ZN6System8Internal7Strhlpr10AnsiDeleteERNS_11AnsiStringTILt65535EEEii 0000000140029ae0     rtl:System.Internal.StrHlpr.o
 0004:00000aec       $pdata$_ZN6System8Internal7Strhlpr13AnsiSetLengthERNS_11AnsiStringTILt65535EEEi 0000000140029aec     rtl:System.Internal.StrHlpr.o
 0004:00000af8       $pdata$_ZN6System8Internal7Strhlpr7AnsiPosERNS_11AnsiStringTILt65535EEES4_ 0000000140029af8     rtl:System.Internal.StrHlpr.o
 0004:00000b04       $pdata$_ZN6System8Internal7Strhlpr8AnsiCopyERNS_11AnsiStringTILt65535EEEii 0000000140029b04     rtl:System.Internal.StrHlpr.o
 0004:00000b10       $pdata$_ZN6System8Internal7Strhlpr10AnsiInsertERNS_11AnsiStringTILt65535EEES4_i 0000000140029b10     rtl:System.Internal.StrHlpr.o
 0004:00000b1c       $pdata$_ZN6System8Internal7Strhlpr9AnsiEqualERNS_11AnsiStringTILt65535EEES4_ 0000000140029b1c     rtl:System.Internal.StrHlpr.o
 0004:00000b28       $pdata$_ZN6System8Internal7Strhlpr11AnsiGreaterERNS_11AnsiStringTILt65535EEES4_ 0000000140029b28     rtl:System.Internal.StrHlpr.o
 0004:00000b34       $pdata$_ZN6System8Internal7Strhlpr8AnsiLessERNS_11AnsiStringTILt65535EEES4_ 0000000140029b34     rtl:System.Internal.StrHlpr.o
 0004:00000b40       $pdata$_ZN6System8Internal7Strhlpr10AnsiAssignERNS_11AnsiStringTILt65535EEES4_ 0000000140029b40     rtl:System.Internal.StrHlpr.o
 0004:00000b4c       $pdata$_ZN6System8Internal7Strhlpr8AnsiFreeERNS_11AnsiStringTILt65535EEE 0000000140029b4c     rtl:System.Internal.StrHlpr.o
 0004:00000b58       $pdata$_ZN6System8Internal7Strhlpr10WideAssignERNS_10WideStringES3_ 0000000140029b58     rtl:System.Internal.StrHlpr.o
 0004:00000b64       $pdata$_ZN6System8Internal7Strhlpr8WideFreeERNS_10WideStringE 0000000140029b64     rtl:System.Internal.StrHlpr.o
 0004:00000b70       $pdata$_ZN6System8Internal7Strhlpr12WideFromAnsiERNS_10WideStringERNS_11AnsiStringTILt65535EEE 0000000140029b70     rtl:System.Internal.StrHlpr.o
 0004:00000b7c       $pdata$_ZN6System8Internal7Strhlpr15WideFromUnicodeERNS_10WideStringERNS_13UnicodeStringE 0000000140029b7c     rtl:System.Internal.StrHlpr.o
 0004:00000b88       $pdata$_ZN6System8Internal7Strhlpr13WideFromPCharERNS_10WideStringEPcb 0000000140029b88     rtl:System.Internal.StrHlpr.o
 0004:00000ba0       $pdata$_ZN6System8Internal7Strhlpr9WideEqualERNS_10WideStringES3_ 0000000140029ba0     rtl:System.Internal.StrHlpr.o
 0004:00000bac       $pdata$_ZN6System8Internal7Strhlpr8WideLessERNS_10WideStringES3_ 0000000140029bac     rtl:System.Internal.StrHlpr.o
 0004:00000bb8       $pdata$_ZN6System8Internal7Strhlpr11WideGreaterERNS_10WideStringES3_ 0000000140029bb8     rtl:System.Internal.StrHlpr.o
 0004:00000bc4       $pdata$_ZN6System8Internal7Strhlpr7WideCatERNS_10WideStringES3_ 0000000140029bc4     rtl:System.Internal.StrHlpr.o
 0004:00000bd0       $pdata$_ZN6System8Internal7Strhlpr10WideLengthERNS_10WideStringE 0000000140029bd0     rtl:System.Internal.StrHlpr.o
 0004:00000bdc       $pdata$_ZN6System8Internal7Strhlpr7WidePosERNS_10WideStringES3_ 0000000140029bdc     rtl:System.Internal.StrHlpr.o
 0004:00000be8       $pdata$_ZN6System8Internal7Strhlpr13WideSetLengthERNS_10WideStringEi 0000000140029be8     rtl:System.Internal.StrHlpr.o
 0004:00000bf4       $pdata$_ZN6System8Internal7Strhlpr10WideDeleteERNS_10WideStringEii 0000000140029bf4     rtl:System.Internal.StrHlpr.o
 0004:00000c00       $pdata$_ZN6System8Internal7Strhlpr10WideInsertERNS_10WideStringES3_i 0000000140029c00     rtl:System.Internal.StrHlpr.o
 0004:00000c0c       $pdata$_ZN6System8Internal7Strhlpr8WideCopyERNS_10WideStringEii 0000000140029c0c     rtl:System.Internal.StrHlpr.o
 0004:00000c18       $pdata$_ZN6System8Internal7Strhlpr10WideAppendERNS_10WideStringES3_ 0000000140029c18     rtl:System.Internal.StrHlpr.o
 0004:00000c24       $pdata$_ZN6System8Internal7Strhlpr12WideFromUTF8ERNS_10WideStringEPKc 0000000140029c24     rtl:System.Internal.StrHlpr.o
 0004:00000c3c       $pdata$_ZN6System8Internal7Strhlpr15UnicodeFromWideERNS_13UnicodeStringERNS_10WideStringE 0000000140029c3c     rtl:System.Internal.StrHlpr.o
 0004:00000c48       $pdata$_ZN6System8Internal7Strhlpr12FinalizationEv 0000000140029c48     rtl:System.Internal.StrHlpr.o
 0004:00000c54       $pdata$_ZN6System8Internal7Strhlpr14initializationEv 0000000140029c54     rtl:System.Internal.StrHlpr.o
 0004:00000ef4       $pdata$_ZN21Idhttpwebbrokerbridge17TIdHTTPAppRequestC3EPN9Idcontext10TIdContextEPN18Idcustomhttpserver18TIdHTTPRequestInfoEPNS4_19TIdHTTPResponseInfoE 0000000140029ef4     IdHTTPWebBrokerBridge.o
 0004:00000f18       $pdata$_ZN21Idhttpwebbrokerbridge17TIdHTTPAppRequestD0Ev 0000000140029f18     IdHTTPWebBrokerBridge.o
 0004:00000f24       $pdata$_ZN21Idhttpwebbrokerbridge17TIdHTTPAppRequest15GetDateVariableEi 0000000140029f24     IdHTTPWebBrokerBridge.o
 0004:00000f3c       $pdata$_ZN21Idhttpwebbrokerbridge17TIdHTTPAppRequest18GetIntegerVariableEi 0000000140029f3c     IdHTTPWebBrokerBridge.o
 0004:00000f54       $pdata$_ZN21Idhttpwebbrokerbridge17TIdHTTPAppRequest14GetRawPathInfoEv 0000000140029f54     IdHTTPWebBrokerBridge.o
 0004:00000f60       $pdata$_ZN21Idhttpwebbrokerbridge17TIdHTTPAppRequest11GetRemoteIPEv 0000000140029f60     IdHTTPWebBrokerBridge.o
 0004:00000f6c       $pdata$_ZN21Idhttpwebbrokerbridge17TIdHTTPAppRequest13GetRawContentEv 0000000140029f6c     IdHTTPWebBrokerBridge.o
 0004:00000f84       $pdata$_ZN21Idhttpwebbrokerbridge17TIdHTTPAppRequest17GetStringVariableEi 0000000140029f84     IdHTTPWebBrokerBridge.o
 0004:00000fb4       $pdata$_ZN21Idhttpwebbrokerbridge17TIdHTTPAppRequest14GetFieldByNameEN6System13UnicodeStringE 0000000140029fb4     IdHTTPWebBrokerBridge.o
 0004:00000fc0       $pdata$_ZN21Idhttpwebbrokerbridge17TIdHTTPAppRequest10ReadClientEPvi 0000000140029fc0     IdHTTPWebBrokerBridge.o
 0004:00000fcc       $pdata$_ZN21Idhttpwebbrokerbridge17TIdHTTPAppRequest10ReadStringEi 0000000140029fcc     IdHTTPWebBrokerBridge.o
 0004:00000fe4       $pdata$_ZN21Idhttpwebbrokerbridge17TIdHTTPAppRequest12TranslateURIEN6System13UnicodeStringE 0000000140029fe4     IdHTTPWebBrokerBridge.o
 0004:00000ff0       $pdata$_ZN21Idhttpwebbrokerbridge17TIdHTTPAppRequest12WriteHeadersEiN6System13UnicodeStringES2_ 0000000140029ff0     IdHTTPWebBrokerBridge.o
 0004:00000ffc       $pdata$_ZN21Idhttpwebbrokerbridge17TIdHTTPAppRequest11WriteStringEN6System13UnicodeStringE 0000000140029ffc     IdHTTPWebBrokerBridge.o
 0004:00001008       $pdata$_ZN21Idhttpwebbrokerbridge17TIdHTTPAppRequest11WriteClientEPvi 000000014002a008     IdHTTPWebBrokerBridge.o
 0004:00001020       $pdata$_ZN21Idhttpwebbrokerbridge18TIdHTTPAppResponseC3EPN3Web7Httpapp11TWebRequestEPN9Idcontext10TIdContextEPN18Idcustomhttpserver18TIdHTTPRequestInfoEPNS8_19TIdHTTPResponseInfoE 000000014002a020     IdHTTPWebBrokerBridge.o
 0004:00001044       $pdata$_ZN21Idhttpwebbrokerbridge18TIdHTTPAppResponse10GetContentEv 000000014002a044     IdHTTPWebBrokerBridge.o
 0004:00001050       $pdata$_ZN21Idhttpwebbrokerbridge18TIdHTTPAppResponse13GetLogMessageEv 000000014002a050     IdHTTPWebBrokerBridge.o
 0004:0000105c       $pdata$_ZN21Idhttpwebbrokerbridge18TIdHTTPAppResponse13GetStatusCodeEv 000000014002a05c     IdHTTPWebBrokerBridge.o
 0004:00001068       $pdata$_ZZN21Idhttpwebbrokerbridge18TIdHTTPAppResponse15GetDateVariableEiE5ToGMTPvN6System9TDateTimeE 000000014002a068     IdHTTPWebBrokerBridge.o
 0004:00001074       $pdata$_ZN21Idhttpwebbrokerbridge18TIdHTTPAppResponse15GetDateVariableEi 000000014002a074     IdHTTPWebBrokerBridge.o
 0004:0000108c       $pdata$_ZZN21Idhttpwebbrokerbridge18TIdHTTPAppResponse15SetDateVariableEiN6System9TDateTimeEE7ToLocalPvS2_ 000000014002a08c     IdHTTPWebBrokerBridge.o
 0004:00001098       $pdata$_ZN21Idhttpwebbrokerbridge18TIdHTTPAppResponse15SetDateVariableEiN6System9TDateTimeE 000000014002a098     IdHTTPWebBrokerBridge.o
 0004:000010b0       $pdata$_ZN21Idhttpwebbrokerbridge18TIdHTTPAppResponse18GetIntegerVariableEi 000000014002a0b0     IdHTTPWebBrokerBridge.o
 0004:000010c8       $pdata$_ZN21Idhttpwebbrokerbridge18TIdHTTPAppResponse18SetIntegerVariableEix 000000014002a0c8     IdHTTPWebBrokerBridge.o
 0004:000010e0       $pdata$_ZN21Idhttpwebbrokerbridge18TIdHTTPAppResponse17GetStringVariableEi 000000014002a0e0     IdHTTPWebBrokerBridge.o
 0004:000010f8       $pdata$_ZN21Idhttpwebbrokerbridge18TIdHTTPAppResponse17SetStringVariableEiN6System13UnicodeStringE 000000014002a0f8     IdHTTPWebBrokerBridge.o
 0004:00001110       $pdata$_ZN21Idhttpwebbrokerbridge18TIdHTTPAppResponse12SendRedirectEN6System13UnicodeStringE 000000014002a110     IdHTTPWebBrokerBridge.o
 0004:0000111c       $pdata$_ZN21Idhttpwebbrokerbridge18TIdHTTPAppResponse12SendResponseEv 000000014002a11c     IdHTTPWebBrokerBridge.o
 0004:00001134       $pdata$_ZN21Idhttpwebbrokerbridge18TIdHTTPAppResponse10SendStreamEPN6System7Classes7TStreamE 000000014002a134     IdHTTPWebBrokerBridge.o
 0004:00001140       $pdata$_ZN21Idhttpwebbrokerbridge18TIdHTTPAppResponse4SentEv 000000014002a140     IdHTTPWebBrokerBridge.o
 0004:0000114c       $pdata$_ZN21Idhttpwebbrokerbridge18TIdHTTPAppResponse10SetContentEN6System13UnicodeStringE 000000014002a14c     IdHTTPWebBrokerBridge.o
 0004:00001158       $pdata$_ZN21Idhttpwebbrokerbridge18TIdHTTPAppResponse13SetLogMessageEN6System13UnicodeStringE 000000014002a158     IdHTTPWebBrokerBridge.o
 0004:00001164       $pdata$_ZN21Idhttpwebbrokerbridge18TIdHTTPAppResponse13SetStatusCodeEi 000000014002a164     IdHTTPWebBrokerBridge.o
 0004:00001170       $pdata$_ZN21Idhttpwebbrokerbridge18TIdHTTPAppResponse16SetContentStreamEPN6System7Classes7TStreamE 000000014002a170     IdHTTPWebBrokerBridge.o
 0004:0000117c       $pdata$_ZN21Idhttpwebbrokerbridge12DoHTTPEncodeEN6System13UnicodeStringE 000000014002a17c     IdHTTPWebBrokerBridge.o
 0004:00001188       $pdata$_ZN21Idhttpwebbrokerbridge18TIdHTTPAppResponse27MoveCookiesAndCustomHeadersEv 000000014002a188     IdHTTPWebBrokerBridge.o
 0004:000011a0       $pdata$_ZN21Idhttpwebbrokerbridge22TIdHTTPWebBrokerBridge14DoCommandOtherEPN9Idcontext10TIdContextEPN18Idcustomhttpserver18TIdHTTPRequestInfoEPNS4_19TIdHTTPResponseInfoE 000000014002a1a0     IdHTTPWebBrokerBridge.o
 0004:000011ac       $pdata$_ZN21Idhttpwebbrokerbridge22TIdHTTPWebBrokerBridge13InitComponentEv 000000014002a1ac     IdHTTPWebBrokerBridge.o
 0004:000011b8       $pdata$_ZN21Idhttpwebbrokerbridge36TIdHTTPWebBrokerBridgeRequestHandlerv04cctrEv 000000014002a1b8     IdHTTPWebBrokerBridge.o
 0004:000011c4       $pdata$_ZN21Idhttpwebbrokerbridge36TIdHTTPWebBrokerBridgeRequestHandler3RunEPN9Idcontext10TIdContextEPN18Idcustomhttpserver18TIdHTTPRequestInfoEPNS4_19TIdHTTPResponseInfoE 000000014002a1c4     IdHTTPWebBrokerBridge.o
 0004:000011f4       $pdata$_ZN21Idhttpwebbrokerbridge36TIdHTTPWebBrokerBridgeRequestHandlerC3EPN6System7Classes10TComponentE 000000014002a1f4     IdHTTPWebBrokerBridge.o
 0004:0000120c       $pdata$_ZN21Idhttpwebbrokerbridge36TIdHTTPWebBrokerBridgeRequestHandlerD0Ev 000000014002a20c     IdHTTPWebBrokerBridge.o
 0004:00001218       $pdata$_ZN21Idhttpwebbrokerbridge36TIdHTTPWebBrokerBridgeRequestHandlerv04cdtrEv 000000014002a218     IdHTTPWebBrokerBridge.o
 0004:00001224       $pdata$_ZN21Idhttpwebbrokerbridge35IdHTTPWebBrokerBridgeRequestHandlerEv 000000014002a224     IdHTTPWebBrokerBridge.o
 0004:00001230       $pdata$_ZN21Idhttpwebbrokerbridge22TIdHTTPWebBrokerBridge12DoCommandGetEPN9Idcontext10TIdContextEPN18Idcustomhttpserver18TIdHTTPRequestInfoEPNS4_19TIdHTTPResponseInfoE 000000014002a230     IdHTTPWebBrokerBridge.o
 0004:0000123c       $pdata$_ZN21Idhttpwebbrokerbridge22TIdHTTPWebBrokerBridge17RunWebModuleClassEPN9Idcontext10TIdContextEPN18Idcustomhttpserver18TIdHTTPRequestInfoEPNS4_19TIdHTTPResponseInfoE 000000014002a23c     IdHTTPWebBrokerBridge.o
 0004:00001284       $pdata$_ZN21Idhttpwebbrokerbridge22TIdHTTPWebBrokerBridge22RegisterWebModuleClassEN6System7Classes15TComponentClassE 000000014002a284     IdHTTPWebBrokerBridge.o
 0004:00001290       $pdata$_ZN21Idhttpwebbrokerbridge12FinalizationEv 000000014002a290     IdHTTPWebBrokerBridge.o
 0004:0000129c       $pdata$_ZN21Idhttpwebbrokerbridge14initializationEv 000000014002a29c     IdHTTPWebBrokerBridge.o
 0004:000012a8       $pdata$_ZN6System8Generics11Collections14TEnumerable__1IPNS_7Classes15TCollectionItemEE11ToArrayImplEx 000000014002a2a8     IdHTTPWebBrokerBridge.o
 0004:000012c0       $pdata$_ZN6System8Generics11Collections14TEnumerable__1IPNS_7Classes15TCollectionItemEED0Ev 000000014002a2c0     IdHTTPWebBrokerBridge.o
 0004:000012cc       $pdata$_ZN6System8Generics11Collections14TEnumerable__1IPNS_7Classes15TCollectionItemEE13GetEnumeratorEv 000000014002a2cc     IdHTTPWebBrokerBridge.o
 0004:000012d8       $pdata$_ZN6System8Generics11Collections14TEnumerable__1IPNS_7Classes15TCollectionItemEE7ToArrayEv 000000014002a2d8     IdHTTPWebBrokerBridge.o
 0004:000012f0       $pdata$_ZN6System8Generics11Collections14TEnumerator__1IPNS_7Classes15TCollectionItemEE8MoveNextEv 000000014002a2f0     IdHTTPWebBrokerBridge.o
 0004:000012fc       $pdata$_ZN6System8Generics11Collections8TList__1IPNS_7Classes15TCollectionItemEE11FListHelperEv 000000014002a2fc     IdHTTPWebBrokerBridge.o
 0004:00001308       $pdata$_ZN6System8Generics11Collections8TList__1IPNS_7Classes15TCollectionItemEE7GetListEv 000000014002a308     IdHTTPWebBrokerBridge.o
 0004:00001314       $pdata$_ZN6System8Generics11Collections8TList__1IPNS_7Classes15TCollectionItemEE8GetPListEv 000000014002a314     IdHTTPWebBrokerBridge.o
 0004:00001320       $pdata$_ZN6System8Generics11Collections8TList__1IPNS_7Classes15TCollectionItemEE11GetCapacityEv 000000014002a320     IdHTTPWebBrokerBridge.o
 0004:0000132c       $pdata$_ZN6System8Generics11Collections8TList__1IPNS_7Classes15TCollectionItemEE11SetCapacityEx 000000014002a32c     IdHTTPWebBrokerBridge.o
 0004:00001338       $pdata$_ZN6System8Generics11Collections8TList__1IPNS_7Classes15TCollectionItemEE8SetCountEx 000000014002a338     IdHTTPWebBrokerBridge.o
 0004:00001344       $pdata$_ZN6System8Generics11Collections8TList__1IPNS_7Classes15TCollectionItemEE10GetIsEmptyEv 000000014002a344     IdHTTPWebBrokerBridge.o
 0004:00001350       $pdata$_ZN6System8Generics11Collections8TList__1IPNS_7Classes15TCollectionItemEE14CheckItemRangeEx 000000014002a350     IdHTTPWebBrokerBridge.o
 0004:0000135c       $pdata$_ZN6System8Generics11Collections8TList__1IPNS_7Classes15TCollectionItemEE7GetItemEx 000000014002a35c     IdHTTPWebBrokerBridge.o
 0004:00001368       $pdata$_ZN6System8Generics11Collections8TList__1IPNS_7Classes15TCollectionItemEE7SetItemExS5_ 000000014002a368     IdHTTPWebBrokerBridge.o
 0004:00001374       $pdata$_ZN6System8Generics11Collections8TList__1IPNS_7Classes15TCollectionItemEE9GrowCheckEx 000000014002a374     IdHTTPWebBrokerBridge.o
 0004:00001380       $pdata$_ZN6System8Generics11Collections8TList__1IPNS_7Classes15TCollectionItemEE8DoDeleteExNS1_23TCollectionNotificationE 000000014002a380     IdHTTPWebBrokerBridge.o
 0004:0000138c       $pdata$_ZN6System8Generics11Collections8TList__1IPNS_7Classes15TCollectionItemEE14InternalNotifyEPKvNS1_23TCollectionNotificationE 000000014002a38c     IdHTTPWebBrokerBridge.o
 0004:00001398       $pdata$_ZN6System8Generics11Collections8TList__1IPNS_7Classes15TCollectionItemEE12UpdateNotifyEv 000000014002a398     IdHTTPWebBrokerBridge.o
 0004:000013a4       $pdata$_ZN6System8Generics11Collections8TList__1IPNS_7Classes15TCollectionItemEE11SetOnNotifyEU9__closurePFvPNS_7TObjectES5_NS1_23TCollectionNotificationEE 000000014002a3a4     IdHTTPWebBrokerBridge.o
 0004:000013b0       $pdata$_ZN6System8Generics11Collections8TList__1IPNS_7Classes15TCollectionItemEE15InternalCompareEPKvS8_ 000000014002a3b0     IdHTTPWebBrokerBridge.o
 0004:000013bc       $pdata$_ZN6System8Generics11Collections8TList__1IPNS_7Classes15TCollectionItemEE14UpdateComparerENS_15DelphiInterfaceINS0_8Defaults12IComparer__1IS5_EEEE 000000014002a3bc     IdHTTPWebBrokerBridge.o
 0004:000013c8       $pdata$_ZN6System8Generics11Collections8TList__1IPNS_7Classes15TCollectionItemEE9ItemValueES5_ 000000014002a3c8     IdHTTPWebBrokerBridge.o
 0004:000013d4       $pdata$_ZN6System8Generics11Collections8TList__1IPNS_7Classes15TCollectionItemEE15DoGetEnumeratorEv 000000014002a3d4     IdHTTPWebBrokerBridge.o
 0004:000013e0       $pdata$_ZN6System8Generics11Collections8TList__1IPNS_7Classes15TCollectionItemEE6NotifyES5_NS1_23TCollectionNotificationE 000000014002a3e0     IdHTTPWebBrokerBridge.o
 0004:000013ec       $pdata$_ZN6System8Generics11Collections8TList__1IPNS_7Classes15TCollectionItemEEC3Ev 000000014002a3ec     IdHTTPWebBrokerBridge.o
 0004:00001404       $pdata$_ZN6System8Generics11Collections8TList__1IPNS_7Classes15TCollectionItemEEC3ENS_15DelphiInterfaceINS0_8Defaults12IComparer__1IS5_EEEE 000000014002a404     IdHTTPWebBrokerBridge.o
 0004:0000141c       $pdata$_ZN6System8Generics11Collections8TList__1IPNS_7Classes15TCollectionItemEEC3EPNS1_14TEnumerable__1IS5_EE 000000014002a41c     IdHTTPWebBrokerBridge.o
 0004:00001434       $pdata$_ZN6System8Generics11Collections8TList__1IPNS_7Classes15TCollectionItemEEC3ENS_15DelphiInterfaceINS_14IEnumerable__1IS5_EEEE 000000014002a434     IdHTTPWebBrokerBridge.o
 0004:0000144c       $pdata$_ZN6System8Generics11Collections8TList__1IPNS_7Classes15TCollectionItemEEC3EPKS5_x 000000014002a44c     IdHTTPWebBrokerBridge.o
 0004:00001464       $pdata$_ZN6System8Generics11Collections8TList__1IPNS_7Classes15TCollectionItemEED0Ev 000000014002a464     IdHTTPWebBrokerBridge.o
 0004:00001470       $pdata$_ZN6System8Generics11Collections8TList__1IPNS_7Classes15TCollectionItemEE5ErrorENS_13UnicodeStringEx 000000014002a470     IdHTTPWebBrokerBridge.o
 0004:0000147c       $pdata$_ZN6System8Generics11Collections8TList__1IPNS_7Classes15TCollectionItemEE5ErrorEPNS_13TResStringRecEx 000000014002a47c     IdHTTPWebBrokerBridge.o
 0004:00001494       $pdata$_ZN6System8Generics11Collections8TList__1IPNS_7Classes15TCollectionItemEE3AddES5_ 000000014002a494     IdHTTPWebBrokerBridge.o
 0004:000014a0       $pdata$_ZN6System8Generics11Collections8TList__1IPNS_7Classes15TCollectionItemEE8AddRangeEPKS5_x 000000014002a4a0     IdHTTPWebBrokerBridge.o
 0004:000014ac       $pdata$_ZN6System8Generics11Collections8TList__1IPNS_7Classes15TCollectionItemEE8AddRangeENS_15DelphiInterfaceINS_14IEnumerable__1IS5_EEEE 000000014002a4ac     IdHTTPWebBrokerBridge.o
 0004:000014b8       $pdata$_ZN6System8Generics11Collections8TList__1IPNS_7Classes15TCollectionItemEE8AddRangeEPNS1_14TEnumerable__1IS5_EE 000000014002a4b8     IdHTTPWebBrokerBridge.o
 0004:000014c4       $pdata$_ZN6System8Generics11Collections8TList__1IPNS_7Classes15TCollectionItemEE6InsertExS5_ 000000014002a4c4     IdHTTPWebBrokerBridge.o
 0004:000014d0       $pdata$_ZN6System8Generics11Collections8TList__1IPNS_7Classes15TCollectionItemEE11InsertRangeExPKS5_xx 000000014002a4d0     IdHTTPWebBrokerBridge.o
 0004:000014dc       $pdata$_ZN6System8Generics11Collections8TList__1IPNS_7Classes15TCollectionItemEE11InsertRangeExPKS5_x 000000014002a4dc     IdHTTPWebBrokerBridge.o
 0004:000014e8       $pdata$_ZN6System8Generics11Collections8TList__1IPNS_7Classes15TCollectionItemEE11InsertRangeExNS_15DelphiInterfaceINS_14IEnumerable__1IS5_EEEE 000000014002a4e8     IdHTTPWebBrokerBridge.o
 0004:0000150c       $pdata$_ZN6System8Generics11Collections8TList__1IPNS_7Classes15TCollectionItemEE11InsertRangeExPNS1_14TEnumerable__1IS5_EE 000000014002a50c     IdHTTPWebBrokerBridge.o
 0004:00001524       $pdata$_ZN6System8Generics11Collections8TList__1IPNS_7Classes15TCollectionItemEE4PackEv 000000014002a524     IdHTTPWebBrokerBridge.o
 0004:0000153c       $pdata$_ZN6System8Generics11Collections8TList__1IPNS_7Classes15TCollectionItemEE4PackENS_15DelphiInterfaceINS6_10TEmptyFuncEEE 000000014002a53c     IdHTTPWebBrokerBridge.o
 0004:00001554       $pdata$_ZN6System8Generics11Collections8TList__1IPNS_7Classes15TCollectionItemEE6RemoveES5_ 000000014002a554     IdHTTPWebBrokerBridge.o
 0004:00001560       $pdata$_ZN6System8Generics11Collections8TList__1IPNS_7Classes15TCollectionItemEE10RemoveItemES5_NS_5Types10TDirectionE 000000014002a560     IdHTTPWebBrokerBridge.o
 0004:0000156c       $pdata$_ZN6System8Generics11Collections8TList__1IPNS_7Classes15TCollectionItemEE6DeleteEx 000000014002a56c     IdHTTPWebBrokerBridge.o
 0004:00001578       $pdata$_ZN6System8Generics11Collections8TList__1IPNS_7Classes15TCollectionItemEE11DeleteRangeExx 000000014002a578     IdHTTPWebBrokerBridge.o
 0004:00001584       $pdata$_ZN6System8Generics11Collections8TList__1IPNS_7Classes15TCollectionItemEE11ExtractItemES5_NS_5Types10TDirectionE 000000014002a584     IdHTTPWebBrokerBridge.o
 0004:00001590       $pdata$_ZN6System8Generics11Collections8TList__1IPNS_7Classes15TCollectionItemEE7ExtractES5_ 000000014002a590     IdHTTPWebBrokerBridge.o
 0004:0000159c       $pdata$_ZN6System8Generics11Collections8TList__1IPNS_7Classes15TCollectionItemEE9ExtractAtEx 000000014002a59c     IdHTTPWebBrokerBridge.o
 0004:000015a8       $pdata$_ZN6System8Generics11Collections8TList__1IPNS_7Classes15TCollectionItemEE8ExchangeExx 000000014002a5a8     IdHTTPWebBrokerBridge.o
 0004:000015b4       $pdata$_ZN6System8Generics11Collections8TList__1IPNS_7Classes15TCollectionItemEE4MoveExx 000000014002a5b4     IdHTTPWebBrokerBridge.o
 0004:000015c0       $pdata$_ZN6System8Generics11Collections8TList__1IPNS_7Classes15TCollectionItemEE5FirstEv 000000014002a5c0     IdHTTPWebBrokerBridge.o
 0004:000015cc       $pdata$_ZN6System8Generics11Collections8TList__1IPNS_7Classes15TCollectionItemEE4LastEv 000000014002a5cc     IdHTTPWebBrokerBridge.o
 0004:000015d8       $pdata$_ZN6System8Generics11Collections8TList__1IPNS_7Classes15TCollectionItemEE5ClearEv 000000014002a5d8     IdHTTPWebBrokerBridge.o
 0004:000015e4       $pdata$_ZN6System8Generics11Collections8TList__1IPNS_7Classes15TCollectionItemEE6ExpandEv 000000014002a5e4     IdHTTPWebBrokerBridge.o
 0004:000015f0       $pdata$_ZN6System8Generics11Collections8TList__1IPNS_7Classes15TCollectionItemEE8ContainsES5_ 000000014002a5f0     IdHTTPWebBrokerBridge.o
 0004:000015fc       $pdata$_ZN6System8Generics11Collections8TList__1IPNS_7Classes15TCollectionItemEE7IndexOfES5_ 000000014002a5fc     IdHTTPWebBrokerBridge.o
 0004:00001608       $pdata$_ZN6System8Generics11Collections8TList__1IPNS_7Classes15TCollectionItemEE11IndexOfItemES5_NS_5Types10TDirectionE 000000014002a608     IdHTTPWebBrokerBridge.o
 0004:00001614       $pdata$_ZN6System8Generics11Collections8TList__1IPNS_7Classes15TCollectionItemEE11LastIndexOfES5_ 000000014002a614     IdHTTPWebBrokerBridge.o
 0004:00001620       $pdata$_ZN6System8Generics11Collections8TList__1IPNS_7Classes15TCollectionItemEE7ReverseEv 000000014002a620     IdHTTPWebBrokerBridge.o
 0004:0000162c       $pdata$_ZN6System8Generics11Collections8TList__1IPNS_7Classes15TCollectionItemEE4SortEv 000000014002a62c     IdHTTPWebBrokerBridge.o
 0004:00001638       $pdata$_ZN6System8Generics11Collections8TList__1IPNS_7Classes15TCollectionItemEE4SortENS_15DelphiInterfaceINS0_8Defaults12IComparer__1IS5_EEEE 000000014002a638     IdHTTPWebBrokerBridge.o
 0004:00001644       $pdata$_ZN6System8Generics11Collections8TList__1IPNS_7Classes15TCollectionItemEE4SortENS_15DelphiInterfaceINS0_8Defaults12IComparer__1IS5_EEEExx 000000014002a644     IdHTTPWebBrokerBridge.o
 0004:00001650       $pdata$_ZN6System8Generics11Collections8TList__1IPNS_7Classes15TCollectionItemEE12BinarySearchES5_Rx 000000014002a650     IdHTTPWebBrokerBridge.o
 0004:0000165c       $pdata$_ZN6System8Generics11Collections8TList__1IPNS_7Classes15TCollectionItemEE12BinarySearchES5_RxNS_15DelphiInterfaceINS0_8Defaults12IComparer__1IS5_EEEE 000000014002a65c     IdHTTPWebBrokerBridge.o
 0004:00001668       $pdata$_ZN6System8Generics11Collections8TList__1IPNS_7Classes15TCollectionItemEE12BinarySearchES5_RxNS_15DelphiInterfaceINS0_8Defaults12IComparer__1IS5_EEEExx 000000014002a668     IdHTTPWebBrokerBridge.o
 0004:00001674       $pdata$_ZN6System8Generics11Collections8TList__1IPNS_7Classes15TCollectionItemEE12BinarySearchES5_Ri 000000014002a674     IdHTTPWebBrokerBridge.o
 0004:00001680       $pdata$_ZN6System8Generics11Collections8TList__1IPNS_7Classes15TCollectionItemEE12BinarySearchES5_RiNS_15DelphiInterfaceINS0_8Defaults12IComparer__1IS5_EEEE 000000014002a680     IdHTTPWebBrokerBridge.o
 0004:0000168c       $pdata$_ZN6System8Generics11Collections8TList__1IPNS_7Classes15TCollectionItemEE12BinarySearchES5_RiNS_15DelphiInterfaceINS0_8Defaults12IComparer__1IS5_EEEEii 000000014002a68c     IdHTTPWebBrokerBridge.o
 0004:00001698       $pdata$_ZN6System8Generics11Collections8TList__1IPNS_7Classes15TCollectionItemEE10TrimExcessEv 000000014002a698     IdHTTPWebBrokerBridge.o
 0004:000016a4       $pdata$_ZN6System8Generics11Collections8TList__1IPNS_7Classes15TCollectionItemEE7ToArrayEv 000000014002a6a4     IdHTTPWebBrokerBridge.o
 0004:000016b0       $pdata$_ZN6System8Generics11Collections8TList__1IPNS_7Classes15TCollectionItemEE13GetEnumeratorEv 000000014002a6b0     IdHTTPWebBrokerBridge.o
 0004:000016bc       $pdata$_ZN6System8Generics11Collections8TList__1IPNS_7Classes15TCollectionItemEE11TEnumerator10GetCurrentEv 000000014002a6bc     IdHTTPWebBrokerBridge.o
 0004:000016c8       $pdata$_ZN6System8Generics11Collections8TList__1IPNS_7Classes15TCollectionItemEE11TEnumerator12DoGetCurrentEv 000000014002a6c8     IdHTTPWebBrokerBridge.o
 0004:000016d4       $pdata$_ZN6System8Generics11Collections8TList__1IPNS_7Classes15TCollectionItemEE11TEnumerator10DoMoveNextEv 000000014002a6d4     IdHTTPWebBrokerBridge.o
 0004:000016e0       $pdata$_ZN6System8Generics11Collections8TList__1IPNS_7Classes15TCollectionItemEE11TEnumeratorC3EPS6_ 000000014002a6e0     IdHTTPWebBrokerBridge.o
 0004:000016f8       $pdata$_ZN6System8Generics11Collections8TList__1IPNS_7Classes15TCollectionItemEE11TEnumerator8MoveNextEv 000000014002a6f8     IdHTTPWebBrokerBridge.o
 0004:00001704       $pdata$_ZN6System8Generics8Defaults12TComparer__1IPNS_7Classes15TCollectionItemEE13EQOperCompareEPvS5_S5_ 000000014002a704     IdHTTPWebBrokerBridge.o
 0004:00001710       $pdata$_ZN6System8Generics8Defaults12TComparer__1IPNS_7Classes15TCollectionItemEE25TryUseRecEqualityOperatorEv 000000014002a710     IdHTTPWebBrokerBridge.o
 0004:0000171c       $pdata$_ZN6System8Generics8Defaults12TComparer__1IPNS_7Classes15TCollectionItemEE8_DefaultEv 000000014002a71c     IdHTTPWebBrokerBridge.o
 0004:00001728       $pdata$_ZN6System8Generics8Defaults12TComparer__1IPNS_7Classes15TCollectionItemEE10_ConstructENS_15DelphiInterfaceINS1_14TComparison__1IS5_EEEE 000000014002a728     IdHTTPWebBrokerBridge.o
 0004:00001734       $pdata$_ZN6System8Generics8Defaults12TComparer__1IPNS_7Classes15TCollectionItemEE7DefaultEv 000000014002a734     IdHTTPWebBrokerBridge.o
 0004:00001740       $pdata$_ZN6System8Generics8Defaults12TComparer__1IPNS_7Classes15TCollectionItemEE9ConstructENS_15DelphiInterfaceINS1_14TComparison__1IS5_EEEE 000000014002a740     IdHTTPWebBrokerBridge.o
 0004:0000174c       $pdata$_ZN6System8Generics11Collections24@TList__1_Pack_1__ActRecIPNS_7Classes15TCollectionItemEE7_0_BodyEPKv 000000014002a74c     IdHTTPWebBrokerBridge.o
 0004:00001758       $pdata$_ZN6System8Generics11Collections24@TList__1_Pack_0__ActRecIPNS_7Classes15TCollectionItemEE7_0_BodyEPKv 000000014002a758     IdHTTPWebBrokerBridge.o
 0004:00001764       $pdata$_ZN6System8Generics11Collections6TArray4SortIPNS_7Classes15TCollectionItemEEEvPT_xNS_15DelphiInterfaceINS0_8Defaults12IComparer__1IS8_EEEExx 000000014002a764     IdHTTPWebBrokerBridge.o
 0004:00001770       $pdata$_ZN6System8Generics11Collections6TArray12BinarySearchIPNS_7Classes15TCollectionItemEEEbPKT_xS8_RxNS_15DelphiInterfaceINS0_8Defaults12IComparer__1IS8_EEEExx 000000014002a770     IdHTTPWebBrokerBridge.o
 0004:0000177c       $pdata$_ZN6System8Generics11Collections6TArray12BinarySearchIPNS_7Classes15TCollectionItemEEEbPKT_xS8_RiNS_15DelphiInterfaceINS0_8Defaults12IComparer__1IS8_EEEEii 000000014002a77c     IdHTTPWebBrokerBridge.o
 0004:00001788       $pdata$_ZN6System8Generics11Collections6TArray9QuickSortIPNS_7Classes15TCollectionItemEEEvPT_xNS_15DelphiInterfaceINS0_8Defaults12IComparer__1IS8_EEEExx 000000014002a788     IdHTTPWebBrokerBridge.o
 0004:00001794       $pdata$_ZN6System8Generics11Collections6TArray14DoBinarySearchIPNS_7Classes15TCollectionItemEEEbPKT_xS8_RxNS_15DelphiInterfaceINS0_8Defaults12IComparer__1IS8_EEEExx 000000014002a794     IdHTTPWebBrokerBridge.o
 0004:000017dc       $pdata$_ZN6System8Internal7Initcpp23SelectForInitializationEPNS1_20TUnitDescriptorBlockES3_ 000000014002a7dc     rtl:System.Internal.InitCPP.o
 0004:000017e8       $pdata$_ZN6System8Internal7Initcpp23SelectForInitializationEPPNS1_20TUnitDescriptorBlockES4_ 000000014002a7e8     rtl:System.Internal.InitCPP.o
 0004:000017f4       $pdata$_ZN6System8Internal7Initcpp15InitializeUnitsEPNS1_20TUnitDescriptorBlockES3_ 000000014002a7f4     rtl:System.Internal.InitCPP.o
 0004:00001800       $pdata$_ZN6System8Internal7Initcpp13FinalizeUnitsEPNS1_20TUnitDescriptorBlockES3_ 000000014002a800     rtl:System.Internal.InitCPP.o
 0004:0000180c       $pdata$_ZN6System8Internal7Initcpp15InitializeUnitsEPPNS1_20TUnitDescriptorBlockES4_ 000000014002a80c     rtl:System.Internal.InitCPP.o
 0004:00001818       $pdata$_ZN6System8Internal7Initcpp13FinalizeUnitsEPPNS1_20TUnitDescriptorBlockES4_ 000000014002a818     rtl:System.Internal.InitCPP.o
 0004:00001824       $pdata$_ZN6System8Internal7Initcpp15InitializeUnitsEPNS1_15TUnitDescriptorES3_ 000000014002a824     rtl:System.Internal.InitCPP.o
 0004:00001830       $pdata$_ZN6System8Internal7Initcpp13FinalizeUnitsEPNS1_15TUnitDescriptorES3_ 000000014002a830     rtl:System.Internal.InitCPP.o
 0004:0000183c       $pdata$_ZN6System8Internal7Initcpp15CalculateDegreeEPNS1_20TUnitDescriptorBlockES3_ 000000014002a83c     rtl:System.Internal.InitCPP.o
 0004:00001848       $pdata$_ZN6System8Internal7Initcpp15CalculateDegreeEPPNS1_20TUnitDescriptorBlockES4_ 000000014002a848     rtl:System.Internal.InitCPP.o
 0004:00001854       $pdata$_ZN6System8Internal7Initcpp16FinalizeUnitListEPPPNS1_15TUnitDescriptorES5_ 000000014002a854     rtl:System.Internal.InitCPP.o
 0004:0000186c       $pdata$_ZN6System8Internal7Initcpp18InitializeRootUnitEPNS1_15TUnitDescriptorE 000000014002a86c     rtl:System.Internal.InitCPP.o
 0004:000018a8       $pdata$_ZN6System8Internal7Initcpp16FinalizeRootUnitEPNS1_15TUnitDescriptorE 000000014002a8a8     rtl:System.Internal.InitCPP.o
 0004:000018c0       $pdata$_ZN6System8Internal7Initcpp12FinalizationEv 000000014002a8c0     rtl:System.Internal.InitCPP.o
 0004:000018cc       $pdata$_ZN6System8Internal7Initcpp14initializationEv 000000014002a8cc     rtl:System.Internal.InitCPP.o
 0009:00000010       _ZL15exception_count       000000014002f010     libmingw32:lib64_libmingw32_a-hook_delphieh.o
 0009:00000020       _ZL16exception_object      000000014002f020     libmingw32:lib64_libmingw32_a-hook_delphieh.o
 000a:00000460       $R000000                   0000000140030460     internal .obj file created from .res files
 000a:00000768       $R000001                   0000000140030768     internal .obj file created from .res files
 000a:00000830       $R000002                   0000000140030830     internal .obj file created from .res files
 000a:00000868       $R000003                   0000000140030868     internal .obj file created from .res files
 000a:00000978       $R000004                   0000000140030978     internal .obj file created from .res files
 000a:00000ba0       $R000005                   0000000140030ba0     internal .obj file created from .res files
 000a:000021c8       $R000006                   00000001400321c8     internal .obj file created from .res files
 000a:00003070       $R000007                   0000000140033070     internal .obj file created from .res files
 000a:00003918       $R000008                   0000000140033918     internal .obj file created from .res files
 000a:00003e80       $R000009                   0000000140033e80     internal .obj file created from .res files
 000a:0000a340       $R00000A                   000000014003a340     internal .obj file created from .res files
 000a:0001ab68       $R00000B                   000000014004ab68     internal .obj file created from .res files
 000a:0001ed90       $R00000C                   000000014004ed90     internal .obj file created from .res files
 000a:0001f718       $R00000D                   000000014004f718     internal .obj file created from .res files
 000a:0001fb80       $R00000E                   000000014004fb80     internal .obj file created from .res files
 000a:0001fc08       $R00000F                   000000014004fc08     internal .obj file created from .res files
 000a:00020318       $R000010                   0000000140050318     internal .obj file created from .res files
